26138	40	0	MOVIE	0	Drama	100 treets	No	Yes	1
7946	17	0	MOVIE	0	Animation	Moana	No	Yes	8
7418	8	0	MOVIE	0	Animation	The Mermaid Princess	No	Yes	1
19307	76	1	MOVIE	0	Animation	The Mermaid Princess	No	Yes	1
15860	87	1	MOVIE	0	Biography	Churchill	No	Yes	2
20775	3	0	MOVIE	0	Animation	Beavis And Butt-Head Do America	No	Yes	1
11374	33577	559	MOVIE	0	Animation	The Mermaid Princess	No	Yes	1
6358	14	0	MOVIE	0	Animation	Coco	No	Yes	2
11660	85	1	MOVIE	0	Action	Kidnap	No	Yes	2
5155	42	0	MOVIE	0	Action	The Accountant	No	Yes	2
30889	71	1	MOVIE	0	Biography	The Birth of a Nation	No	Yes	7
1035	85	1	MOVIE	0	Action	The Amazing pider-Man	No	Yes	10
12598	46	0	MOVIE	0	Comedy	Baywatch	No	Yes	6
7805	90	1	MOVIE	0	Horror	Alien: Covenant	No	Yes	7
33846	86	1	MOVIE	0	Comedy	Going in tyle	No	Yes	3
12333	153	2	MOVIE	0	Action	Kingsman: The Golden Circle	No	Yes	1
25343	2	0	MOVIE	0	Comedy	Billy Elliot the Musical Live	No	Yes	1
30971	35	0	MOVIE	0	Comedy	Going in tyle	No	Yes	3
26546	43	0	MOVIE	0	Animation	Moana	No	Yes	8
20306	12	0	MOVIE	0	Animation	Moana	No	Yes	8
16962	28	0	MOVIE	0	Comedy	Pitch Perfect	No	Yes	5
16880	84	1	MOVIE	0	Animation	Surf's Up : WaveMania	No	Yes	1
19694	2650	44	SERIES/EPISODES	7	Drama	Hell On Wheels	No	Yes	2
22529	69	1	MOVIE	0	Biography	Sully	No	Yes	6
21917	12	0	MOVIE	0	Drama	Goat	No	Yes	1
28952	47	0	MOVIE	0	Action	Last Knights	No	Yes	1
25404	3553	59	MOVIE	0	Horror	Land Of The Dead	No	Yes	5
14270	2	0	MOVIE	0	Action	Geostorm	No	Yes	3
14249	20	0	MOVIE	0	Animation	Trolls	No	Yes	3
21019	21	0	MOVIE	0	Animation	The Mermaid Princess	No	Yes	1
17696	6	0	MOVIE	0	Horror	Inside	No	Yes	4
24323	127	2	MOVIE	0	Action	Underworld: Awakening	No	Yes	1
13067	33	0	MOVIE	0	Action	American niper	No	Yes	1
23833	88	1	MOVIE	0	Biography	Sully	No	Yes	6
15269	34	0	MOVIE	0	Action	Game of Aces	No	Yes	1
7092	5	0	MOVIE	0	Horror	Extraterrestrial	No	Yes	3
3727	42	0	MOVIE	0	Animation	Lego DC uper Hero Girls: Brain Drain	No	Yes	1
25873	8	0	MOVIE	0	Animation	The Jetsons & WWE: Robo-WrestleMania!	No	Yes	1
12863	53	0	MOVIE	0	Animation	The Mermaid Princess	No	Yes	1
28626	83	1	MOVIE	0	Animation	Surf's Up : WaveMania	No	Yes	1
1933	81	1	MOVIE	0	Animation	Lego cooby-Doo! Blowout Beach Bash	No	Yes	1
18348	388356	6472	MOVIE	0	Animation	Ferdinand	Yes	No	3
5073	62	1	MOVIE	0	Action	Geostorm	No	Yes	3
23671	59	0	MOVIE	0	Comedy	Baywatch	No	Yes	6
19816	26	0	MOVIE	0	Action	Geostorm	No	Yes	3
24405	142	2	MOVIE	0	Animation	Monsters University	No	Yes	1
934	14	0	MOVIE	0	Action	War for the Planet of the Apes	No	Yes	3
23324	42	0	MOVIE	0	Animation	Surf's Up	No	Yes	1
28687	61	1	MOVIE	0	Animation	Moana	No	Yes	8
33459	39	0	MOVIE	0	Action	Instant Death	No	Yes	1
8846	12	0	MOVIE	0	Action	Geostorm	No	Yes	3
2932	24	0	MOVIE	0	Animation	Coco	No	Yes	2
730	1388	23	SERIES/EPISODES	10	Animation	PAW Patrol	No	Yes	4
3952	1153	19	MOVIE	0	Comedy	Baywatch	No	Yes	6
15616	61	1	MOVIE	0	Action	Free Fire	No	Yes	1
25955	72	1	MOVIE	0	Animation	The Mermaid Princess	No	Yes	1
9029	6	0	MOVIE	0	Comedy	Snatched	No	Yes	1
32521	83	1	MOVIE	0	Comedy	No Reservations	No	Yes	1
9988	24	0	MOVIE	0	Action	The Nice Guys	No	Yes	1
7235	2	0	MOVIE	0	Animation	Ferdinand	No	Yes	3
21795	6433	107	MOVIE	0	NOT_DEFINED_IN_UMS	Dunkirk	No	Yes	1
23202	7	0	MOVIE	0	Action	The Hunter's Prayer	No	Yes	1
17206	17	0	MOVIE	0	Animation	The Pirates! Band Of Misfits	No	Yes	1
23732	81	1	MOVIE	0	Comedy	Puerto Ricans in Paris	No	Yes	1
21263	89	1	MOVIE	0	Horror	All the Boys Love Mandy Lane	No	Yes	1
13189	1265	21	MOVIE	0	Animation	Tom And Jerry: anta's Little Helpers	No	Yes	1
26893	46	0	MOVIE	0	Action	Morning tar	No	Yes	1
33602	31	0	MOVIE	0	Comedy	Soul Men	No	Yes	1
5094	2403	40	SERIES/EPISODES	3	Action	Zoo	No	Yes	3
10926	89	1	MOVIE	0	Drama	No Country For Old Men	No	Yes	1
12802	91	1	MOVIE	0	Animation	The Boss Baby	No	Yes	10
5542	688	11	SERIES/EPISODES	22	Animation	Littlest Pet hop  	No	Yes	1
18960	1379	22	SERIES/EPISODES	5	Animation	Dora the Explorer	No	Yes	3
23875	17	0	MOVIE	0	Biography	Sully	No	Yes	6
31848	12	0	MOVIE	0	Animation	The Boss Baby	No	Yes	10
20081	26	0	SERIES/EPISODES	7	Thriller	Hannibal	No	Yes	3
19143	4943	82	SERIES/EPISODES	3	Horror	The Walking Dead	No	Yes	10
32990	13	0	MOVIE	0	Action	Baby Driver	No	Yes	2
17431	1251	20	SERIES/EPISODES	10	Documentary	I urvived…	No	Yes	2
8703	27	0	MOVIE	0	Horror	Paranormal Activity	No	Yes	1
8417	37	0	MOVIE	0	Animation	Trolls	No	Yes	3
21326	31	0	MOVIE	0	Action	Total Recall	No	Yes	4
30849	398	6	SERIES/EPISODES	20	Drama	Wannous	No	Yes	2
15229	86	1	MOVIE	0	Drama	Collateral Beauty	No	Yes	4
30319	6	0	SERIES/EPISODES	1	Animation	Littlest Pet hop	No	Yes	1
24548	8	0	MOVIE	0	Action	Assassin's Creed	No	Yes	2
2177	104	1	MOVIE	0	Drama	The Girl on the Train	No	Yes	3
31053	546	9	MOVIE	0	Comedy	Pitch Perfect	No	Yes	5
7990	2989	49	MOVIE	0	Drama	Finding Forrester	No	Yes	5
4808	91	1	MOVIE	0	Animation	The Boss Baby	No	Yes	10
14291	90	1	MOVIE	0	Animation	The Boss Baby	No	Yes	10
19858	44	0	MOVIE	0	Animation	The Boss Baby	No	Yes	10
8520	63	1	MOVIE	0	Animation	Batman and Harley Quinn	No	Yes	1
3687	17	0	MOVIE	0	Crime	Inside Man	No	Yes	10
23772	83	1	MOVIE	0	Action	Premium Rush	No	Yes	1
200	4	0	MOVIE	0	Comedy	Why Did I Get Married Too?	No	Yes	3
26302	48	0	SERIES/EPISODES	0	Animation	Kung Fu Panda: Legends Of Awesomeness	No	Yes	1
26281	17	0	MOVIE	0	Comedy	Going in tyle	No	Yes	3
3218	10	0	SERIES/EPISODES	0	Comedy	Melissa & Joey	No	Yes	1
17227	49	0	MOVIE	0	Horror	Underground	No	Yes	1
14760	86	1	MOVIE	0	Animation	The Boss Baby	No	Yes	10
7786	49	0	MOVIE	0	Biography	Rebel in the Rye	No	Yes	1
16371	78	1	MOVIE	0	Biography	Sully	No	Yes	6
25221	16	0	MOVIE	0	Thriller	Broken Vows	No	Yes	2
19919	49	0	MOVIE	0	Animation	Trolls	No	Yes	3
12476	80	1	MOVIE	0	Action	Geostorm	No	Yes	3
9193	82	1	MOVIE	0	Action	Kingsman: The Golden Circle	No	Yes	1
26750	1922	32	SERIES/EPISODES	5	Action	American Odyssey	No	Yes	1
20184	1319	21	SERIES/EPISODES	9	Animation	Blaze And The Monster Machines	No	Yes	4
22876	60	1	MOVIE	0	Comedy	Baywatch	No	Yes	6
2015	89	1	MOVIE	0	Drama	Collateral Beauty	No	Yes	4
3157	305	5	SERIES/EPISODES	10	Animation	Pingu	No	Yes	1
6440	707	11	SERIES/EPISODES	8	Animation	Franny's Feet	No	Yes	1
24365	98	1	MOVIE	0	Horror	Rings	No	Yes	10
18613	72	1	SERIES/EPISODES	5	Comedy	Friends	No	Yes	10
32746	93	1	MOVIE	0	Animation	Trolls	No	Yes	3
17614	2	0	MOVIE	0	Drama	Collateral Beauty	No	Yes	4
12272	97	1	MOVIE	0	Drama	My Cousin Rachel	No	Yes	1
32725	23	0	MOVIE	0	Comedy	Snatched	No	Yes	1
9315	10	0	MOVIE	0	Horror	Transfiguration	No	Yes	1
20653	68	1	MOVIE	0	Biography	The Founder	No	Yes	5
19368	20	0	MOVIE	0	Action	Baby Driver	No	Yes	2
4564	169	2	MOVIE	0	Drama	Gifted	No	Yes	2
9601	5729	95	MOVIE	0	Horror	Paranormal Activity	No	Yes	1
22203	8	0	MOVIE	0	Animation	Trolls	No	Yes	3
29524	1338	22	SERIES/EPISODES	1	Animation	Dora the Explorer	No	Yes	3
2362	59	0	MOVIE	0	Documentary	An Inconvenient equel: Truth to Power	No	Yes	2
20020	10	0	MOVIE	0	Animation	Howard Lovecraft and the Frozen Kingdom	No	Yes	1
32685	7	0	MOVIE	0	Action	Police tory	No	Yes	3
14005	108	1	MOVIE	0	Animation	Trolls	No	Yes	3
6053	71	1	MOVIE	0	Animation	Howard Lovecraft and the Frozen Kingdom	No	Yes	1
22081	92	1	MOVIE	0	Animation	Ferdinand	No	Yes	3
11456	29	0	MOVIE	0	Thriller	Always hine	No	Yes	1
30462	3	0	MOVIE	0	Animation	The Adventures of Petey and Friends	No	Yes	1
3096	121	2	MOVIE	0	Comedy	Big Daddy	No	Yes	1
7887	62	1	MOVIE	0	Animation	The Mermaid Princess	No	Yes	1
17717	211	3	SERIES/EPISODES	1	Horror	The Walking Dead	No	Yes	10
19185	14	0	MOVIE	0	Comedy	Baywatch	No	Yes	6
15433	3	0	MOVIE	0	Animation	Trolls	No	Yes	3
25017	90	1	MOVIE	0	Animation	The Boss Baby	No	Yes	10
18920	5	0	MOVIE	0	Action	Roadkill	No	Yes	1
32195	11	0	MOVIE	0	Animation	Surf's Up : WaveMania	No	Yes	1
18981	8	0	MOVIE	0	Comedy	Baywatch	No	Yes	6
23425	5	0	MOVIE	0	Family	101 Dalmatians	No	Yes	1
4503	22	0	MOVIE	0	Action	The Hunter's Prayer	No	Yes	1
17656	1272	21	SERIES/EPISODES	4	Comedy	Friends	No	Yes	10
13271	1333	22	MOVIE	0	Drama	Desert Dancer	No	Yes	1
28912	11	0	SERIES/EPISODES	1	Drama	24: Live Another Day	No	Yes	1
1975	2395	39	SERIES/EPISODES	12	Drama	The Americans	No	Yes	1
25181	10	0	MOVIE	0	Drama	Collateral Beauty	No	Yes	4
8276	143	2	MOVIE	0	Animation	Monsters University	No	Yes	1
1403	7	0	MOVIE	0	Animation	Captain Underpants: The First Epic Movie	No	Yes	1
3178	126	2	MOVIE	0	Comedy	Zombieland	No	Yes	2
13170	4	0	MOVIE	0	Comedy	E-Dounia Maqlouba	No	Yes	1
3422	55	0	MOVIE	0	Drama	100 treets	No	Yes	1
19450	7745	129	MOVIE	0	Comedy	The Holiday	No	Yes	4
14373	850	14	MOVIE	0	Action	War for the Planet of the Apes	No	Yes	3
20428	2562	42	SERIES/EPISODES	4	Action	Vikings  	No	Yes	4
10621	9	0	MOVIE	0	Animation	The Boss Baby	No	Yes	10
5115	88	1	MOVIE	0	Drama	Collateral Beauty	No	Yes	4
5788	6	0	MOVIE	0	Animation	Trolls	No	Yes	3
11090	1514	25	SERIES/EPISODES	17	Animation	PAW Patrol	No	Yes	4
28586	11	0	MOVIE	0	Action	Kingsman: The Golden Circle	No	Yes	1
26241	2940	49	MOVIE	0	Thriller	Piranha DD	Yes	No	1
6583	100	1	MOVIE	0	Horror	Rings	No	Yes	10
26384	140	2	SERIES/EPISODES	1	Comedy	Friends	Yes	No	10
11559	132	2	MOVIE	0	Animation	Trolls	No	Yes	3
13843	91	1	MOVIE	0	Action	The Accountant	No	Yes	2
27587	1224	20	SERIES/EPISODES	28	Comedy	Kalam A-Nas	No	Yes	4
29789	9	0	MOVIE	0	Animation	The Nut Job : Nutty by Nature	No	Yes	1
9683	71	1	MOVIE	0	Animation	The Boss Baby	No	Yes	10
21265	10	0	MOVIE	0	Comedy	Paris Can Wait	No	Yes	1
28872	88	1	MOVIE	0	Drama	Collateral Beauty	No	Yes	4
17982	84	1	MOVIE	0	Drama	If I tay	No	Yes	3
8236	14	0	MOVIE	0	Action	Assassin's Creed	No	Yes	2
28441	31	0	SERIES/EPISODES	1	Comedy	House of Lies	No	Yes	1
16922	6647	110	MOVIE	0	Action	Geostorm	No	Yes	3
17555	4	0	MOVIE	0	Comedy	Going in tyle	No	Yes	3
33583	171	2	MOVIE	0	Drama	Despite the Falling now	No	Yes	1
23427	74	1	MOVIE	0	Animation	The Mermaid Princess	No	Yes	1
10335	98	1	MOVIE	0	Documentary	An Inconvenient equel: Truth to Power	No	Yes	2
15740	1736	28	SERIES/EPISODES	7	Horror	American Horror tory	No	Yes	2
8173	2320	38	SERIES/EPISODES	12	Horror	The Walking Dead	No	Yes	10
3933	97	1	MOVIE	0	Animation	The Boss Baby	No	Yes	10
8358	88	1	MOVIE	0	Drama	Collateral Beauty	No	Yes	4
2322	1263	21	SERIES/EPISODES	5	Comedy	Friends	No	Yes	10
23917	2	0	MOVIE	0	Animation	Ferdinand	No	Yes	3
25732	23	0	MOVIE	0	Drama	Unforgettable	No	Yes	3
29953	135	2	MOVIE	0	Animation	Madagascar: Escape  Africa	No	Yes	1
10865	1268	21	SERIES/EPISODES	2	Drama	Doctor Amrad Nesa	No	Yes	1
26201	61	1	MOVIE	0	Horror	Alien: Covenant	No	Yes	7
16739	48	0	MOVIE	0	Animation	Moana	No	Yes	8
16005	92	1	MOVIE	0	Animation	The Boss Baby	No	Yes	10
32033	84	1	MOVIE	0	Animation	The pongeBob quarePants Movie	No	Yes	1
12783	10	0	MOVIE	0	Comedy	Burnt	No	Yes	2
13456	4339	72	MOVIE	0	Animation	The Mermaid Princess	No	Yes	1
33848	1884	31	SERIES/EPISODES	10	Action	Teen Wolf	Yes	No	10
24121	87	1	MOVIE	0	Animation	Dragon Ball Z: Resurrection F	No	Yes	1
10438	92	1	MOVIE	0	Animation	The Boss Baby	No	Yes	10
31890	65	1	MOVIE	0	Drama	Seven Pounds	No	Yes	1
33032	26	0	MOVIE	0	Animation	Coco	No	Yes	2
28077	40	0	MOVIE	0	Animation	Alvin and the Chipmunks	No	Yes	1
27547	96	1	MOVIE	0	Action	Assassin's Creed	No	Yes	2
10234	2397	39	MOVIE	0	Comedy	Daddy Day Camp	No	Yes	2
25589	456	7	SERIES/EPISODES	6	Animation	Puppy In My Pocket  	No	Yes	1
6217	7	0	MOVIE	0	Comedy	Billy Elliot the Musical Live	No	Yes	1
3056	68	1	MOVIE	0	Action	Slow West	No	Yes	1
31339	33	0	MOVIE	0	Animation	The Mermaid Princess	No	Yes	1
15576	70	1	MOVIE	0	Thriller	10 Days in a Madhouse	No	Yes	4
19267	94	1	SERIES/EPISODES	1	Drama	Fargo	No	Yes	1
24590	12	0	MOVIE	0	Animation	Shrek	No	Yes	1
31217	91	1	MOVIE	0	Thriller	Broken Vows	No	Yes	2
14066	96	1	MOVIE	0	Action	Assassin's Creed	No	Yes	2
7950	64	1	MOVIE	0	Thriller	#FollowFriday	No	Yes	1
5544	12	0	MOVIE	0	Thriller	10 Days in a Madhouse	No	Yes	4
26548	92	1	MOVIE	0	Animation	The Boss Baby	No	Yes	10
12396	202	3	MOVIE	0	Animation	Lego DC uper Hero Girls: Brain Drain	No	Yes	1
7420	162	2	SERIES/EPISODES	1	Action	Blindspot	No	Yes	6
2383	72	1	MOVIE	0	Animation	Trolls	No	Yes	3
1262	24	0	MOVIE	0	Thriller	Broken Vows	No	Yes	2
13599	89	1	MOVIE	0	Horror	A Cure for Wellness	No	Yes	3
5218	131	2	MOVIE	0	Drama	The Girl on the Train	No	Yes	3
10316	80	1	MOVIE	0	Animation	Moana	No	Yes	8
19553	98	1	MOVIE	0	Thriller	Brimstone	No	Yes	3
4341	4818	80	MOVIE	0	Drama	Snowden	No	Yes	2
20613	1284	21	SERIES/EPISODES	6	Animation	My Little Pony: Friendship Is Magic	No	Yes	1
7563	63	1	MOVIE	0	Action	Kingsman: The Golden Circle	No	Yes	1
2404	91	1	MOVIE	0	Animation	The Boss Baby	No	Yes	10
17820	100	1	MOVIE	0	Animation	Lego DC uper Hero Girls: Brain Drain	No	Yes	1
30912	113	1	MOVIE	0	Thriller	Saw	No	Yes	2
6421	100	1	MOVIE	0	Animation	Trolls	No	Yes	3
7828	1656	27	SERIES/EPISODES	19	Drama	Heroes	No	Yes	5
21204	9	0	MOVIE	0	Thriller	Drive Angry	No	Yes	10
4606	3270	54	SERIES/EPISODES	11	Horror	The train	No	Yes	1
793	94	1	MOVIE	0	Action	Assassin's Creed	No	Yes	2
22245	2108	35	SERIES/EPISODES	6	Drama	A-Shaqiqatan	No	Yes	1
27751	62	1	MOVIE	0	Horror	Extraterrestrial	No	Yes	3
7155	81	1	MOVIE	0	Action	Monster Trucks	No	Yes	2
32626	59	0	MOVIE	0	Drama	Unforgettable	No	Yes	3
27528	4649	77	MOVIE	0	Animation	Puss in Boots	No	Yes	1
33095	316	5	SERIES/EPISODES	2	Animation	Sonic Underground	No	Yes	1
8278	6	0	SERIES/EPISODES	9	Drama	Heroes	No	Yes	5
2711	75	1	MOVIE	0	NOT_DEFINED_IN_UMS	Dunkirk	No	Yes	1
30687	27	0	MOVIE	0	Thriller	Brimstone	No	Yes	3
22430	15	0	MOVIE	0	NOT_DEFINED_IN_UMS	Dunkirk	No	Yes	1
3180	64	1	MOVIE	0	Animation	The Adventures of Petey and Friends	No	Yes	1
9216	188	3	SERIES/EPISODES	9	Horror	Bates Motel	No	Yes	1
33114	72	1	MOVIE	0	Animation	Moana	No	Yes	8
27280	82	1	MOVIE	0	Horror	The Neighbor	No	Yes	1
31484	69	1	MOVIE	0	Horror	Alien: Covenant	No	Yes	7
28935	60	1	MOVIE	0	Action	Jack Reacher: Never Go Back	No	Yes	2
22899	103	1	MOVIE	0	Thriller	The Orphan	No	Yes	2
33360	21	0	SERIES/EPISODES	1	Comedy	Jane the Virgin	No	Yes	3
26466	84	1	MOVIE	0	Animation	Surf's Up : WaveMania	No	Yes	1
4118	35	0	MOVIE	0	Animation	Ferdinand	No	Yes	3
31280	92	1	MOVIE	0	Animation	Coco	No	Yes	2
20819	86	1	MOVIE	0	Drama	Passengers	No	Yes	2
11765	54	0	MOVIE	0	Animation	The Adventures of Petey and Friends	No	Yes	1
16659	7	0	MOVIE	0	Animation	The Boss Baby	No	Yes	10
9296	16	0	MOVIE	0	Action	War for the Planet of the Apes	No	Yes	3
33909	16	0	MOVIE	0	Action	The Man with the Iron Heart	No	Yes	1
160	1284	21	SERIES/EPISODES	23	Animation	Angelo Rules	No	Yes	1
10154	3280	54	SERIES/EPISODES	9	Horror	Bates Motel	No	Yes	1
1569	91	1	MOVIE	0	Horror	The Void	No	Yes	1
21288	91	1	MOVIE	0	Animation	The Boss Baby	No	Yes	10
26651	1327	22	SERIES/EPISODES	13	Animation	My Little Pony: Friendship Is Magic  	No	Yes	2
30342	12	0	MOVIE	0	Drama	Unfriended	No	Yes	1
21084	21	0	MOVIE	0	Action	War for the Planet of the Apes	No	Yes	3
8808	51	0	SERIES/EPISODES	0	Action	Vikings  	No	Yes	4
18066	7	0	MOVIE	0	Comedy	Going in tyle	No	Yes	3
13641	243	4	MOVIE	0	Thriller	The Grey	No	Yes	8
15780	78	1	MOVIE	0	Animation	Coco	No	Yes	2
15782	4055	67	MOVIE	0	Animation	The Boss Baby	No	Yes	10
13437	28	0	MOVIE	0	Animation	Puss in Boots	No	Yes	1
8074	47	0	MOVIE	0	NOT_DEFINED_IN_UMS	Dunkirk	No	Yes	1
9481	64	1	MOVIE	0	Documentary	An Inconvenient equel: Truth to Power	No	Yes	2
17801	91	1	MOVIE	0	Animation	The Boss Baby	No	Yes	10
1100	27	0	MOVIE	0	Animation	The Mermaid Princess	No	Yes	1
13906	53	0	MOVIE	0	Animation	Storks	No	Yes	1
4587	19	0	MOVIE	0	Thriller	Broken Vows	No	Yes	2
30872	91	1	MOVIE	0	Animation	The Boss Baby	No	Yes	10
6463	1384	23	SERIES/EPISODES	2	Animation	Caillou	No	Yes	1
28262	36	0	MOVIE	0	Animation	Trolls	No	Yes	3
427	5	0	MOVIE	0	Thriller	The Hunted	No	Yes	1
24775	101	1	MOVIE	0	Biography	The Birth of a Nation	No	Yes	7
19881	102	1	MOVIE	0	Animation	The Jetsons & WWE: Robo-WrestleMania!	No	Yes	1
16190	100	1	MOVIE	0	Comedy	Mamma Mia	No	Yes	2
19677	17	0	MOVIE	0	Animation	The Adventures of Petey and Friends	No	Yes	1
31341	719	11	SERIES/EPISODES	12	Action	Vikings	No	Yes	7
32422	27	0	MOVIE	0	Horror	Underground	No	Yes	1
29873	673	11	SERIES/EPISODES	13	Animation	Jelly Jamm  	No	Yes	1
19412	21	0	MOVIE	0	Drama	Please tand By	No	Yes	1
19004	103	1	MOVIE	0	Action	Collide	No	Yes	1
10827	13	0	MOVIE	0	Action	The Hunter's Prayer	No	Yes	1
16129	3	0	MOVIE	0	Comedy	Baywatch	No	Yes	6
13111	65	1	MOVIE	0	Animation	The Adventures of Petey and Friends	No	Yes	1
30281	88	1	MOVIE	0	Comedy	Snatched	No	Yes	1
13029	3	0	MOVIE	0	Animation	Dragon Ball Z: Resurrection F	No	Yes	1
6055	913	15	MOVIE	0	Action	The Legend of Tarzan	No	Yes	1
14049	3	0	MOVIE	0	Animation	Surf's Up : WaveMania	No	Yes	1
30750	25	0	SERIES/EPISODES	11	Action	Teen Wolf	No	Yes	10
9420	5548	92	MOVIE	0	Comedy	Going in tyle	No	Yes	3
17597	5	0	MOVIE	0	Comedy	Daddy Day Camp	No	Yes	2
8482	15	0	MOVIE	0	Animation	Trolls	No	Yes	3
33299	72	1	MOVIE	0	Animation	Moana	No	Yes	8
19616	3147	52	SERIES/EPISODES	2	Drama	Power	Yes	No	1
3445	5142	85	MOVIE	0	Thriller	Drive Angry	No	Yes	10
15660	92	1	MOVIE	0	Animation	The Boss Baby	No	Yes	10
2446	74	1	MOVIE	0	Animation	The Mermaid Princess	No	Yes	1
28466	79	1	MOVIE	0	Drama	Golden Exits	No	Yes	1
32830	88	1	MOVIE	0	Comedy	Going in tyle	No	Yes	3
610	11	0	MOVIE	0	Drama	Mississippi Grind	No	Yes	1
30546	77	1	MOVIE	0	Drama	Billy Lynn’s Long Halftime Walk	No	Yes	1
11317	91	1	MOVIE	0	Animation	The Boss Baby	No	Yes	10
15191	46	0	MOVIE	0	Comedy	Snatched	No	Yes	1
26325	15	0	SERIES/EPISODES	5	Action	Vikings	Yes	No	7
33768	17	0	MOVIE	0	NOT_DEFINED_IN_UMS	Dunkirk	No	Yes	1
10684	65	1	MOVIE	0	Animation	The Adventures of Petey and Friends	No	Yes	1
27732	159	2	MOVIE	0	Drama	The Girl on the Train	No	Yes	3
11092	6	0	MOVIE	0	Comedy	Bad Teacher	No	Yes	2
25938	118	1	MOVIE	0	Comedy	Flypaper	No	Yes	1
12255	8208	136	MOVIE	0	Drama	Gladiator	No	Yes	5
31974	94	1	MOVIE	0	Animation	Trolls	No	Yes	3
29425	87	1	MOVIE	0	Horror	Inside	No	Yes	4
5933	29	0	MOVIE	0	Animation	Moana	No	Yes	8
14987	1020	17	MOVIE	0	Animation	Barnyard	No	Yes	1
15721	222	3	SERIES/EPISODES	14	Animation	Teenage Mutant Ninja Turtles	No	Yes	2
12724	94	1	MOVIE	0	Drama	The Girl on the Train	No	Yes	3
17822	24	0	MOVIE	0	Animation	Ferdinand	No	Yes	3
29894	109	1	MOVIE	0	Animation	The Jetsons & WWE: Robo-WrestleMania!	No	Yes	1
15742	48	0	MOVIE	0	Biography	Rebel in the Rye	No	Yes	1
13193	2912	48	SERIES/EPISODES	5	Horror	The Walking Dead	No	Yes	10
32443	8104	135	MOVIE	0	Action	Allied	No	Yes	1
30464	124	2	MOVIE	0	Action	Prince of Persia: The ands of Time	No	Yes	1
1590	2	0	MOVIE	0	Action	Underworld: Awakening	No	Yes	1
2059	75	1	MOVIE	0	Animation	The Mermaid Princess	No	Yes	1
27997	63	1	MOVIE	0	Animation	Moana	No	Yes	8
22247	29	0	MOVIE	0	Horror	Rings	No	Yes	10
30363	73	1	MOVIE	0	Animation	Moana	No	Yes	8
25265	56	0	MOVIE	0	Animation	The Mermaid Princess	No	Yes	1
33156	92	1	MOVIE	0	Horror	The Devil's Candy	No	Yes	1
22716	83	1	MOVIE	0	Drama	Murder on the Orient Express	No	Yes	2
31301	28	0	MOVIE	0	Comedy	Baywatch	No	Yes	6
16680	289	4	MOVIE	0	Horror	Extraterrestrial	No	Yes	3
6219	1311	21	SERIES/EPISODES	1	Comedy	Friends	No	Yes	10
14600	3	0	SERIES/EPISODES	0	Drama	Power	No	Yes	1
15273	93	1	MOVIE	0	Drama	The hape of Water	No	Yes	3
4139	84	1	MOVIE	0	Drama	Murder on the Orient Express	No	Yes	2
23858	64	1	MOVIE	0	Animation	The Adventures of Petey and Friends	No	Yes	1
20371	36	0	MOVIE	0	Action	Parker	No	Yes	3
14804	170	2	MOVIE	0	Drama	Ms Peregrine's Home For Peculiar Children	No	Yes	1
6688	26	0	MOVIE	0	Comedy	Snatched	No	Yes	1
23185	1188	19	SERIES/EPISODES	4	Thriller	Hannibal	No	Yes	3
18291	6	0	MOVIE	0	Animation	The Adventures of Petey and Friends	No	Yes	1
9706	11	0	SERIES/EPISODES	10	Comedy	Friends	No	Yes	10
18903	7	0	MOVIE	0	Comedy	Baywatch	No	Yes	6
23429	68	1	MOVIE	0	Thriller	Piranha DD	No	Yes	1
21309	78	1	MOVIE	0	Biography	Sully	No	Yes	6
11113	89	1	MOVIE	0	Comedy	Snatched	No	Yes	1
2202	2882	48	SERIES/EPISODES	6	Horror	The Walking Dead	Yes	No	10
15538	1318	21	SERIES/EPISODES	8	Animation	Blaze And The Monster Machines	No	Yes	4
10787	60	1	SERIES/EPISODES	8	Comedy	House of Lies	Yes	No	1
33055	12	0	MOVIE	0	Comedy	Table	No	Yes	1
27488	44	0	MOVIE	0	Action	Spider-Man	No	Yes	1
14131	22	0	MOVIE	0	Action	The Accountant	No	Yes	2
2997	2191	36	SERIES/EPISODES	20	Drama	Haqq Mayyet	No	Yes	1
30506	83	1	MOVIE	0	Action	Slow West	No	Yes	1
16354	745	12	SERIES/EPISODES	25	Animation	Marcus Level  	No	Yes	1
24592	80	1	MOVIE	0	Action	Instant Death	No	Yes	1
31566	26	0	MOVIE	0	Drama	Collateral Beauty	No	Yes	4
5220	69	1	MOVIE	0	Action	xXx: Return of Xander Cage	No	Yes	2
2671	86	1	MOVIE	0	Animation	Dinosaur	No	Yes	1
19698	93	1	MOVIE	0	Action	The Hunter's Prayer	No	Yes	1
12989	119	1	MOVIE	0	Horror	Rings	No	Yes	10
13458	99	1	MOVIE	0	Horror	Havenhurst	No	Yes	1
122	81	1	MOVIE	0	Action	Vigilante Diaries	No	Yes	1
25408	10	0	MOVIE	0	Action	Free Fire	No	Yes	1
23654	91	1	MOVIE	0	Animation	The Boss Baby	No	Yes	10
7035	102	1	MOVIE	0	Animation	The Jetsons & WWE: Robo-WrestleMania!	No	Yes	1
20636	33	0	MOVIE	0	Action	Blitz	No	Yes	3
17292	1225	20	SERIES/EPISODES	16	Comedy	Blackish	No	Yes	1
3140	19	0	MOVIE	0	Comedy	That's My Boy	No	Yes	1
15620	94	1	MOVIE	0	Drama	The hape of Water	No	Yes	3
5689	2	0	MOVIE	0	Drama	Murder  he Baked: A Deadly Recipe	No	Yes	1
26754	10	0	MOVIE	0	Drama	Collateral Beauty	No	Yes	4
6158	13	0	MOVIE	0	Drama	Collateral Beauty	No	Yes	4
24205	48	0	MOVIE	0	Action	Geostorm	No	Yes	3
32321	2105	35	MOVIE	0	Action	The Amazing pider-Man	No	Yes	10
10053	100	1	MOVIE	0	Biography	The Birth of a Nation	No	Yes	7
23328	2	0	MOVIE	0	Animation	The Mermaid Princess	No	Yes	1
13071	127	2	MOVIE	0	Comedy	Baywatch	No	Yes	6
21187	42	0	MOVIE	0	Animation	The Boss Baby	No	Yes	10
22512	83	1	SERIES/EPISODES	5	Drama	A-Sayeda Al Oula	No	Yes	2
9176	2	0	MOVIE	0	Thriller	Our Kind Of Traitor	No	Yes	1
2141	100	1	MOVIE	0	Animation	The Boss Baby	No	Yes	10
21860	22	0	MOVIE	0	Animation	The Boss Baby	No	Yes	10
4486	82	1	MOVIE	0	NOT_DEFINED_IN_UMS	Dunkirk	No	Yes	1
16293	21	0	MOVIE	0	Animation	Moana	No	Yes	8
1937	90	1	MOVIE	0	Thriller	Broken Vows	No	Yes	2
26815	230	3	MOVIE	0	Comedy	Here Comes The Boom	No	Yes	5
18638	2793	46	SERIES/EPISODES	7	Action	Supergirl	No	Yes	4
30445	112	1	MOVIE	0	Drama	The Girl on the Train	No	Yes	3
10726	81	1	MOVIE	0	NOT_DEFINED_IN_UMS	Dunkirk	No	Yes	1
24878	27	0	MOVIE	0	Animation	Ferdinand	No	Yes	3
19311	1459	24	MOVIE	0	Animation	The Mermaid Princess	No	Yes	1
18230	10	0	MOVIE	0	Action	Morning tar	No	Yes	1
21656	4	0	MOVIE	0	Action	War for the Planet of the Apes	No	Yes	3
33259	115	1	MOVIE	0	Animation	Dragon Ball Z: Resurrection F	No	Yes	1
27284	72	1	MOVIE	0	Animation	Moana	No	Yes	8
16150	1386	23	SERIES/EPISODES	2	Animation	PAW Patrol	No	Yes	4
8177	1151	19	SERIES/EPISODES	2	Comedy	Al Bayt Al Kabeer	No	Yes	1
17904	23	0	SERIES/EPISODES	2	Action	Teen Wolf	No	Yes	10
27896	59	0	MOVIE	0	Family	Max : White House Hero	No	Yes	1
32056	102	1	MOVIE	0	Animation	The Jetsons & WWE: Robo-WrestleMania!	No	Yes	1
33320	93	1	MOVIE	0	Biography	The Birth of a Nation	No	Yes	7
31118	91	1	MOVIE	0	Animation	The Boss Baby	No	Yes	10
12337	6446	107	MOVIE	0	Drama	Billy Lynn’s Long Halftime Walk	No	Yes	1
2610	25	0	SERIES/EPISODES	5	Animation	Pingu	No	Yes	1
6770	9312	155	MOVIE	0	Action	Parker	No	Yes	3
1203	91	1	MOVIE	0	Animation	The Boss Baby	No	Yes	10
2467	4	0	MOVIE	0	Thriller	Broken Vows	No	Yes	2
8442	7	0	MOVIE	0	Biography	The Birth of a Nation	No	Yes	7
22594	21	0	MOVIE	0	Animation	The Adventures of Petey and Friends	No	Yes	1
2345	58	0	SERIES/EPISODES	13	Drama	Grey's Anatomy	Yes	No	6
5832	7918	131	MOVIE	0	Action	Assassin's Creed	No	Yes	2
22064	95	1	MOVIE	0	Drama	Unforgettable	No	Yes	3
16497	4	0	MOVIE	0	Thriller	Broken Vows	No	Yes	2
19780	91	1	MOVIE	0	Animation	The Boss Baby	No	Yes	10
15355	18	0	SERIES/EPISODES	1	Documentary	Ultimate Airport Dubai	No	Yes	10
34197	8	0	MOVIE	0	Comedy	Think Like A Man	No	Yes	5
14213	15	0	MOVIE	0	Horror	Inside	No	Yes	4
8646	87	1	MOVIE	0	Action	Assassin's Creed	Yes	No	2
29507	32	0	MOVIE	0	Drama	Burn Country	No	Yes	1
14539	8	0	SERIES/EPISODES	18	Animation	Numberjacks	No	Yes	1
14417	82	1	MOVIE	0	Animation	Lego cooby-Doo! Blowout Beach Bash	No	Yes	1
23940	33	0	SERIES/EPISODES	1	Drama	Al-Gayyada  	No	Yes	1
8972	9	0	SERIES/EPISODES	2	Drama	Power	No	Yes	1
34136	43	0	MOVIE	0	Animation	Ferdinand	No	Yes	3
26693	1639	27	SERIES/EPISODES	1	Horror	The train	No	Yes	1
10930	5749	95	MOVIE	0	Drama	The ocial Network	No	Yes	2
1407	616	10	SERIES/EPISODES	6	Animation	Chuggington	Yes	No	1
10461	8	0	MOVIE	0	Drama	Collateral Beauty	No	Yes	4
5893	94	1	MOVIE	0	Comedy	Going in tyle	No	Yes	3
30180	30	0	MOVIE	0	Comedy	Snatched	No	Yes	1
26224	5	0	MOVIE	0	Action	The Hunter's Prayer	No	Yes	1
15090	46	0	MOVIE	0	Drama	Unforgettable	No	Yes	3
938	27	0	MOVIE	0	Action	The Patriot	No	Yes	2
15559	26	0	MOVIE	0	Comedy	While You Were leeping	No	Yes	1
23206	95	1	MOVIE	0	Family	Swallows and Amazons	No	Yes	2
13010	56	0	MOVIE	0	Drama	Tulip Fever	No	Yes	1
20657	83	1	MOVIE	0	Animation	Surf's Up : WaveMania	No	Yes	1
9054	80	1	MOVIE	0	Drama	Aftermath	No	Yes	2
32729	88	1	MOVIE	0	Horror	Inside	No	Yes	4
10257	101	1	MOVIE	0	Animation	The Jetsons & WWE: Robo-WrestleMania!	No	Yes	1
29242	2877	47	SERIES/EPISODES	27	Drama	Ya Reit	No	Yes	2
24001	52	0	MOVIE	0	Animation	Storks	No	Yes	1
20188	59	0	MOVIE	0	Comedy	Baywatch	No	Yes	6
3956	91	1	MOVIE	0	Animation	The Boss Baby	No	Yes	10
32260	69	1	MOVIE	0	Animation	Trolls	No	Yes	3
734	76	1	MOVIE	0	Drama	Billy Lynn’s Long Halftime Walk	No	Yes	1
13479	72	1	MOVIE	0	Animation	Moana	No	Yes	8
23675	30	0	MOVIE	0	Animation	Tad the Lost Explorer	No	Yes	1
15151	59	0	MOVIE	0	Comedy	Baywatch	No	Yes	6
7912	114	1	MOVIE	0	Animation	Dragon Ball Z: Resurrection F	No	Yes	1
31322	14	0	MOVIE	0	Animation	Dragon Ball Z: Resurrection F	No	Yes	1
8585	75	1	MOVIE	0	Animation	The Mermaid Princess	No	Yes	1
22737	82	1	MOVIE	0	NOT_DEFINED_IN_UMS	Dunkirk	No	Yes	1
14152	228	3	MOVIE	0	Drama	Hyde Park On Hudson	No	Yes	1
6505	63	1	MOVIE	0	Animation	Tad the Lost Explorer	No	Yes	1
19719	116	1	MOVIE	0	Animation	The murfs	No	Yes	6
3018	70	1	MOVIE	0	Animation	Moana	No	Yes	8
24144	31	0	MOVIE	0	Animation	The Mermaid Princess	No	Yes	1
31791	39	0	MOVIE	0	Comedy	Going in tyle	No	Yes	3
28304	95	1	MOVIE	0	Drama	Unforgettable	No	Yes	3
2625	1380	23	SERIES/EPISODES	17	Animation	Dora the Explorer	No	Yes	3
7946	6	0	MOVIE	0	Animation	Moana	No	Yes	8
7418	22	0	MOVIE	0	Animation	Trolls	No	Yes	3
19307	150	2	MOVIE	0	Animation	Ferdinand	No	Yes	3
15860	65	1	MOVIE	0	Animation	The Boss Baby	No	Yes	10
20775	11	0	MOVIE	0	Comedy	Freaky Friday	No	Yes	1
11374	11	0	MOVIE	0	Animation	Trolls	No	Yes	3
6358	20	0	MOVIE	0	Animation	Ferdinand	No	Yes	3
11660	61	1	MOVIE	0	Drama	Collateral Beauty	No	Yes	4
6215	94	1	MOVIE	0	Comedy	Paris Can Wait	No	Yes	1
9784	90	1	MOVIE	0	Comedy	The House	No	Yes	1
1035	75	1	MOVIE	0	Biography	Rebel in the Rye	No	Yes	1
12598	25	0	MOVIE	0	Horror	Inside	No	Yes	4
7805	94	1	MOVIE	0	Drama	Aftermath	No	Yes	2
33846	24	0	MOVIE	0	Animation	The Mermaid Princess	No	Yes	1
3012	91	1	MOVIE	0	Animation	The Boss Baby	No	Yes	10
12333	93	1	MOVIE	0	Drama	Aftermath	No	Yes	2
25343	711	11	MOVIE	0	Action	Charlie's Angels	No	Yes	1
30971	114	1	MOVIE	0	Animation	Dragon Ball Z: Resurrection F	No	Yes	1
3115	39	0	MOVIE	0	Animation	Coco	No	Yes	2
34050	59	0	MOVIE	0	Animation	The Adventures of Petey and Friends	No	Yes	1
17900	75	1	MOVIE	0	Biography	Rebel in the Rye	No	Yes	1
20142	2881	48	SERIES/EPISODES	3	Thriller	Dexter	No	Yes	10
16880	93	1	MOVIE	0	Animation	Trolls	No	Yes	3
19694	7861	131	MOVIE	0	Action	Robin Hood	No	Yes	4
22529	20	0	MOVIE	0	Drama	Collateral Beauty	No	Yes	4
21917	2	0	MOVIE	0	Comedy	Big Daddy	No	Yes	1
27423	142	2	MOVIE	0	Action	Men In Black	No	Yes	3
25404	12	0	MOVIE	0	Thriller	Identity	No	Yes	2
10905	173	2	MOVIE	0	Comedy	22 Jump treet	No	Yes	3
14270	8	0	MOVIE	0	Action	Instant Death	No	Yes	1
8722	71	1	MOVIE	0	Animation	Moana	No	Yes	8
21019	74	1	MOVIE	0	Documentary	An Inconvenient equel: Truth to Power	No	Yes	2
17696	41	0	MOVIE	0	Horror	Alien: Covenant	No	Yes	7
24323	1349	22	SERIES/EPISODES	6	Comedy	iCarly	No	Yes	1
13067	35	0	MOVIE	0	Animation	The Adventures of Petey and Friends	No	Yes	1
4541	136	2	MOVIE	0	Action	Logan	No	Yes	1
15269	30	0	MOVIE	0	Comedy	Baywatch	No	Yes	6
3727	83	1	MOVIE	0	Family	Diary of a Wimpy Kid: The Long Haul	No	Yes	2
25873	16	0	MOVIE	0	Action	The Marine : Battleground	No	Yes	1
12863	90	1	MOVIE	0	Animation	The Boss Baby	No	Yes	10
1933	81	1	MOVIE	0	Animation	Lego cooby-Doo! Blowout Beach Bash	No	Yes	1
5010	1078	17	SERIES/EPISODES	14	Comedy	Friends	No	Yes	10
5073	14	0	MOVIE	0	NOT_DEFINED_IN_UMS	Dunkirk	No	Yes	1
19164	2	0	MOVIE	0	Action	Pirates of the Caribbean: Dead Men Tell...	No	Yes	2
19816	37	0	MOVIE	0	Action	Geostorm	No	Yes	3
24405	48	0	MOVIE	0	Animation	Ferdinand	No	Yes	3
934	6	0	MOVIE	0	Action	War for the Planet of the Apes	No	Yes	3
23324	47	0	MOVIE	0	Action	Parker	No	Yes	3
3094	92	1	MOVIE	0	Animation	Ferdinand	No	Yes	3
1912	98	1	MOVIE	0	Documentary	An Inconvenient equel: Truth to Power	No	Yes	2
3136	101	1	MOVIE	0	Animation	The Jetsons & WWE: Robo-WrestleMania!	No	Yes	1
2932	10	0	MOVIE	0	Animation	Ferdinand	No	Yes	3
730	1281	21	SERIES/EPISODES	13	Animation	Littlest Pet hop	No	Yes	1
3952	11	0	MOVIE	0	Comedy	Tammy	No	Yes	1
30012	63	1	MOVIE	0	Comedy	Morris from America	No	Yes	1
28319	94	1	MOVIE	0	Animation	Trolls	No	Yes	3
25955	85	1	MOVIE	0	Animation	Emoji Movie	No	Yes	1
9029	11	0	MOVIE	0	Comedy	Snatched	No	Yes	1
9988	80	1	MOVIE	0	Animation	The Little Vampire	No	Yes	1
7235	1386	23	SERIES/EPISODES	3	Animation	PAW Patrol	No	Yes	4
32500	78	1	MOVIE	0	Comedy	The Intervention	No	Yes	1
21713	18	0	SERIES/EPISODES	1	Animation	Pingu	No	Yes	1
23202	34	0	MOVIE	0	Action	War for the Planet of the Apes	No	Yes	3
17206	41	0	MOVIE	0	Animation	Hotel Transylvania	No	Yes	2
23732	100	1	MOVIE	0	Biography	The Birth of a Nation	No	Yes	7
10783	59	0	MOVIE	0	Comedy	Baywatch	No	Yes	6
21263	5130	85	MOVIE	0	Animation	The Boss Baby	No	Yes	10
21122	1177	19	SERIES/EPISODES	2	Comedy	Kalam A-Nas	No	Yes	4
33602	96	1	MOVIE	0	Action	Assassin's Creed	No	Yes	2
5094	87	1	SERIES/EPISODES	1	Horror	The Walking Dead	No	Yes	10
10926	3962	66	MOVIE	0	Thriller	Intruders	No	Yes	6
12802	94	1	MOVIE	0	Animation	Trolls	No	Yes	3
5542	12	0	SERIES/EPISODES	9	Drama	Bayn Al Kanayen  	No	Yes	1
18960	1384	23	SERIES/EPISODES	11	Animation	PAW Patrol	No	Yes	4
23875	30	0	MOVIE	0	Comedy	Baywatch	No	Yes	6
31848	130	2	MOVIE	0	Drama	Fences	No	Yes	2
20081	5616	93	MOVIE	0	Animation	The Lego Movie	No	Yes	2
19143	2145	35	SERIES/EPISODES	1	Horror	The Walking Dead	No	Yes	10
32990	6	0	MOVIE	0	Comedy	Tambola	No	Yes	1
17431	805	13	SERIES/EPISODES	8	Comedy	Ezai E-Sehha	No	Yes	3
8703	16	0	MOVIE	0	Horror	Cloverfield	No	Yes	1
8417	133	2	MOVIE	0	Animation	Surf's Up : WaveMania	No	Yes	1
21326	2359	39	MOVIE	0	Action	Total Recall	No	Yes	4
30849	1165	19	SERIES/EPISODES	6	Comedy	Friends	No	Yes	10
15229	98	1	MOVIE	0	Action	Sicario	No	Yes	1
30319	3463	57	MOVIE	0	Comedy	Bean	No	Yes	6
24548	96	1	MOVIE	0	Action	Assassin's Creed	No	Yes	2
2177	91	1	MOVIE	0	Animation	The Boss Baby	No	Yes	10
31053	3	0	SERIES/EPISODES	7	Drama	Caramel  	No	Yes	3
4808	53	0	MOVIE	0	Comedy	Table	No	Yes	1
14291	90	1	MOVIE	0	Animation	The Boss Baby	No	Yes	10
19858	74	1	MOVIE	0	Animation	The Mermaid Princess	No	Yes	1
8520	728	12	MOVIE	0	Animation	DCU: on of Batman	No	Yes	1
3687	35	0	MOVIE	0	Action	Robin Hood	No	Yes	4
23772	69	1	MOVIE	0	Biography	Open Water	No	Yes	1
26302	10	0	SERIES/EPISODES	0	Animation	Kung Fu Panda: Legends Of Awesomeness	No	Yes	1
26281	6	0	MOVIE	0	Comedy	Snatched	No	Yes	1
3218	48	0	MOVIE	0	Comedy	Meet the Fockers	No	Yes	1
17227	39	0	MOVIE	0	Action	Allied	No	Yes	1
14760	86	1	MOVIE	0	Animation	The Boss Baby	No	Yes	10
7786	4	0	MOVIE	0	Animation	Dragon Ball Z: Resurrection F	No	Yes	1
16371	97	1	MOVIE	0	Action	Assassin's Creed	No	Yes	2
25221	85	1	MOVIE	0	Animation	Surf's Up : WaveMania	No	Yes	1
19919	3563	59	MOVIE	0	Animation	The murfs	No	Yes	6
12476	19	0	MOVIE	0	Action	Geostorm	No	Yes	3
9193	100	1	MOVIE	0	Drama	Gifted	No	Yes	2
26750	1947	32	SERIES/EPISODES	1	Animation	SpongeBob quarePants	No	Yes	2
20184	1320	22	SERIES/EPISODES	11	Animation	Blaze And The Monster Machines	No	Yes	4
22876	92	1	MOVIE	0	Family	Beauty and the Beast	No	Yes	3
2015	95	1	MOVIE	0	Drama	Unforgettable	No	Yes	3
3157	13	0	SERIES/EPISODES	12	Family	Me and My iblings	No	Yes	1
6440	7434	123	MOVIE	0	Comedy	The Family Man	No	Yes	4
21061	1587	26	MOVIE	0	Drama	The hape of Water	No	Yes	3
5012	9	0	MOVIE	0	Action	Maze Runner: The Death Cure	No	Yes	1
24365	6	0	MOVIE	0	Horror	Rings	No	Yes	10
18613	1379	22	SERIES/EPISODES	9	Comedy	Friends	No	Yes	10
32746	75	1	MOVIE	0	Animation	The Mermaid Princess	No	Yes	1
12272	57	0	MOVIE	0	Comedy	Bean	No	Yes	6
32725	2	0	MOVIE	0	Comedy	Burnt	No	Yes	2
9315	41	0	MOVIE	0	Action	Resident Evil: The Final Chapter	No	Yes	1
20653	9	0	MOVIE	0	Comedy	Table	No	Yes	1
19347	85	1	MOVIE	0	Action	Seventh on	No	Yes	2
4564	2	0	MOVIE	0	Animation	Monster House	No	Yes	1
9601	23	0	MOVIE	0	Drama	A Beautiful Mind	No	Yes	1
22203	2	0	MOVIE	0	Action	Jack Reacher: Never Go Back	No	Yes	2
15963	9	0	MOVIE	0	Horror	Land Of The Dead	No	Yes	5
29524	25	0	SERIES/EPISODES	17	Comedy	Kalam A-Nas	No	Yes	4
4829	61	1	MOVIE	0	Action	Morning tar	No	Yes	1
30645	6	0	MOVIE	0	Animation	Ferdinand	No	Yes	3
28544	9	0	MOVIE	0	Animation	Dragon Ball Z: Resurrection F	No	Yes	1
6091	94	1	MOVIE	0	Animation	Trolls	No	Yes	3
32685	79	1	MOVIE	0	Action	Stalingrad	No	Yes	1
21530	87	1	MOVIE	0	Horror	Inside	No	Yes	4
24670	38	0	MOVIE	0	Action	The Marine : Battleground	No	Yes	1
14005	53	0	MOVIE	0	Animation	Storks	No	Yes	1
22081	86	1	MOVIE	0	Animation	Ferdinand	No	Yes	3
30462	8	0	MOVIE	0	Drama	The hape of Water	No	Yes	3
3096	74	1	MOVIE	0	Horror	The Monster	No	Yes	2
7887	101	1	MOVIE	0	Animation	The Jetsons & WWE: Robo-WrestleMania!	No	Yes	1
17717	21	0	MOVIE	0	Animation	The Boss Baby	No	Yes	10
19185	17	0	MOVIE	0	Drama	Philomena	No	Yes	1
15433	1305	21	MOVIE	0	Animation	Trolls	No	Yes	3
25017	90	1	MOVIE	0	Animation	The Boss Baby	No	Yes	10
18920	24	0	MOVIE	0	Horror	Quarantine	No	Yes	1
32195	18	0	MOVIE	0	Animation	Trolls	No	Yes	3
18981	67	1	MOVIE	0	Biography	Rebel in the Rye	No	Yes	1
23425	16	0	MOVIE	0	Animation	The murfs	No	Yes	6
4503	10	0	MOVIE	0	Action	The Hunter's Prayer	No	Yes	1
17656	1277	21	SERIES/EPISODES	16	Comedy	Friends	No	Yes	10
28912	23	0	SERIES/EPISODES	1	Drama	Madrasat Al Hob	No	Yes	3
1975	6	0	SERIES/EPISODES	24	Drama	House	No	Yes	10
8276	122	2	MOVIE	0	Animation	Lego DC Comics uper Heroes: The Flash	No	Yes	1
1403	38	0	MOVIE	0	Action	Jurassic Park III	No	Yes	1
3178	104	1	MOVIE	0	Action	Rise of the Planet of the Apes	No	Yes	1
13170	72	1	MOVIE	0	Animation	Moana	No	Yes	8
29625	80	1	MOVIE	0	Animation	The Boss Baby	No	Yes	10
19450	1278	21	SERIES/EPISODES	2	Animation	Littlest Pet hop	No	Yes	1
14373	33	0	MOVIE	0	Action	Transformers	No	Yes	1
20428	2460	41	SERIES/EPISODES	7	Action	Vikings	No	Yes	7
3239	5599	93	MOVIE	0	Animation	The Boss Baby	No	Yes	10
5115	89	1	MOVIE	0	Comedy	Snatched	No	Yes	1
26649	90	1	MOVIE	0	Horror	Alien: Covenant	No	Yes	7
5788	7076	117	MOVIE	0	Animation	The Boss Baby	No	Yes	10
11090	1344	22	SERIES/EPISODES	3	Animation	The Penguins of Madagascar	No	Yes	1
26241	66	1	MOVIE	0	Action	Underworld: Awakening	Yes	No	1
8459	181	3	SERIES/EPISODES	22	Animation	Nan and Lili	No	Yes	1
26384	11	0	SERIES/EPISODES	7	Horror	The Walking Dead	Yes	No	10
11559	160	2	MOVIE	0	Animation	Dragon Ball Z: Resurrection F	No	Yes	1
13843	100	1	MOVIE	0	Biography	The Birth of a Nation	No	Yes	7
27587	61	1	MOVIE	0	Drama	The ocial Network	No	Yes	2
29789	2	0	MOVIE	0	Action	Kingsman: The Golden Circle	No	Yes	1
9683	5310	88	MOVIE	0	Animation	The Boss Baby	No	Yes	10
21265	2	0	MOVIE	0	Horror	Annabelle: Creation	No	Yes	7
24569	14	0	MOVIE	0	Action	John Wick: Chapter	No	Yes	2
17982	18	0	SERIES/EPISODES	1	Animation	Puppy In My Pocket  	No	Yes	1
21877	83	1	MOVIE	0	Action	Unlocked	No	Yes	1
8236	97	1	MOVIE	0	Action	Assassin's Creed	No	Yes	2
28441	7	0	MOVIE	0	Drama	If I tay	No	Yes	3
13639	38	0	MOVIE	0	Drama	Please tand By	No	Yes	1
25711	120	2	MOVIE	0	Animation	The Tale of Princess Kaguya	Yes	No	1
25568	18	0	MOVIE	0	Drama	Blessed	No	Yes	1
16922	5588	93	MOVIE	0	Animation	The Boss Baby	No	Yes	10
17555	8	0	MOVIE	0	Comedy	Going in tyle	No	Yes	3
33583	75	1	MOVIE	0	Animation	The Mermaid Princess	No	Yes	1
23427	158	2	MOVIE	0	Action	Pirates of the Caribbean: Dead Men Tell...	No	Yes	2
10335	98	1	MOVIE	0	Documentary	An Inconvenient equel: Truth to Power	No	Yes	2
15740	2505	41	SERIES/EPISODES	12	Horror	The train	No	Yes	1
8173	2406	40	SERIES/EPISODES	1	Horror	The Walking Dead	No	Yes	10
5828	65	1	MOVIE	0	Animation	The Adventures of Petey and Friends	No	Yes	1
3933	36	0	MOVIE	0	Horror	Rings	No	Yes	10
9540	12	0	MOVIE	0	Animation	The Adventures of Petey and Friends	No	Yes	1
8358	94	1	MOVIE	0	Animation	Cars	No	Yes	2
15168	53	0	MOVIE	0	Animation	Surf's Up : WaveMania	No	Yes	1
2322	1262	21	SERIES/EPISODES	14	Comedy	Friends	No	Yes	10
13292	26	0	MOVIE	0	Thriller	The Grey	No	Yes	8
25732	56	0	MOVIE	0	Comedy	I Don't Know How he Does It	No	Yes	1
29953	135	2	MOVIE	0	Animation	Madagascar: Escape  Africa	No	Yes	1
10865	1484	24	SERIES/EPISODES	12	Animation	Dinofroz  	No	Yes	2
26201	72	1	MOVIE	0	Animation	Moana	No	Yes	8
179	7	0	MOVIE	0	Documentary	An Inconvenient equel: Truth to Power	No	Yes	2
16005	32	0	MOVIE	0	Comedy	Baywatch	No	Yes	6
32033	15	0	MOVIE	0	Animation	The pongeBob quarePants Movie	No	Yes	1
13456	22	0	MOVIE	0	Animation	Trolls	No	Yes	3
33848	405	6	SERIES/EPISODES	5	Thriller	Wayward Pines	Yes	No	3
24121	68	1	MOVIE	0	Animation	Jungle Master	No	Yes	1
10438	91	1	MOVIE	0	Animation	The Boss Baby	No	Yes	10
2505	101	1	MOVIE	0	Animation	Surf's Up : WaveMania	No	Yes	1
31890	4132	68	MOVIE	0	Animation	The Lego Batman Movie	No	Yes	1
11702	37	0	MOVIE	0	Documentary	Dance Again	No	Yes	1
28077	8	0	MOVIE	0	Horror	Alien: Covenant	No	Yes	7
27547	84	1	MOVIE	0	Drama	Collateral Beauty	No	Yes	4
10234	794	13	SERIES/EPISODES	5	Animation	Shimmer And hine	No	Yes	2
25589	33	0	MOVIE	0	Comedy	Life As We Know It	No	Yes	1
6217	14	0	MOVIE	0	Horror	Inside	No	Yes	4
31339	91	1	MOVIE	0	Animation	The Boss Baby	No	Yes	10
15576	43	0	MOVIE	0	Action	The Ward	No	Yes	1
19267	795	13	MOVIE	0	Crime	Scarface	No	Yes	5
24590	80	1	MOVIE	0	Animation	Coco	No	Yes	2
31217	35	0	MOVIE	0	Animation	Trolls	No	Yes	3
14066	89	1	MOVIE	0	Drama	Collateral Beauty	No	Yes	4
7950	1007	16	MOVIE	0	Horror	Annabelle	No	Yes	3
5544	4	0	MOVIE	0	Animation	The Little Vampire	No	Yes	1
26548	101	1	MOVIE	0	Animation	The Jetsons & WWE: Robo-WrestleMania!	No	Yes	1
15719	27	0	MOVIE	0	Thriller	Broken Vows	No	Yes	2
2383	44	0	MOVIE	0	Comedy	Puerto Ricans in Paris	No	Yes	1
1262	55	0	MOVIE	0	Animation	Dragon Ball Z: Resurrection F	No	Yes	1
25793	6	0	MOVIE	0	Action	Thor: Ragnarok	No	Yes	1
19553	101	1	MOVIE	0	Biography	The Birth of a Nation	No	Yes	7
4341	80	1	MOVIE	0	Drama	Collateral Beauty	No	Yes	4
20613	70	1	MOVIE	0	Comedy	Think Like A Man	No	Yes	5
7563	80	1	MOVIE	0	Comedy	Tammy	No	Yes	1
2404	9	0	MOVIE	0	Animation	The Mermaid Princess	No	Yes	1
17820	75	1	MOVIE	0	Animation	Jungle Master : Candy Planet	No	Yes	1
30912	13	0	SERIES/EPISODES	1	Action	Teen Wolf	No	Yes	10
6421	363	6	MOVIE	0	Animation	Trolls	No	Yes	3
7828	2443	40	SERIES/EPISODES	1	Action	24	No	Yes	6
21204	7716	128	MOVIE	0	Thriller	The Grey	No	Yes	8
4606	1295	21	SERIES/EPISODES	8	Animation	Blaze And The Monster Machines	No	Yes	4
23103	4	0	MOVIE	0	Animation	The Little Vampire	No	Yes	1
18554	15	0	SERIES/EPISODES	0	Horror	The Walking Dead	No	Yes	10
22245	8310	138	MOVIE	0	Action	The Patriot	No	Yes	2
27751	88	1	MOVIE	0	Drama	Fences	No	Yes	2
7155	6331	105	MOVIE	0	Drama	Glory Road	No	Yes	1
27528	1260	21	SERIES/EPISODES	20	Animation	Littlest Pet hop	No	Yes	1
33095	2	0	SERIES/EPISODES	3	Horror	The Walking Dead	No	Yes	10
8278	7	0	SERIES/EPISODES	15	Drama	Heroes	No	Yes	5
22449	57	0	MOVIE	0	Comedy	Bean	No	Yes	6
2711	19	0	MOVIE	0	Action	Teenage Mutant Ninja Turtles	No	Yes	2
22430	2	0	MOVIE	0	Animation	Tad the Lost Explorer	No	Yes	1
3180	64	1	MOVIE	0	Animation	The Adventures of Petey and Friends	No	Yes	1
9216	1344	22	SERIES/EPISODES	7	Horror	American Horror tory	No	Yes	2
33114	72	1	MOVIE	0	Animation	Moana	No	Yes	8
27280	8922	148	MOVIE	0	Horror	Lights Out	No	Yes	1
28935	24	0	MOVIE	0	Animation	Tad the Lost Explorer	No	Yes	1
22899	88	1	MOVIE	0	Drama	Collateral Beauty	No	Yes	4
33360	93	1	MOVIE	0	Animation	Trolls	No	Yes	3
26466	80	1	MOVIE	0	Animation	Coco	No	Yes	2
4118	2	0	MOVIE	0	Animation	The pongeBob Movie: ponge Out of Water	No	Yes	1
31280	10	0	MOVIE	0	Action	The Hunter's Prayer	No	Yes	1
20819	112	1	MOVIE	0	Drama	The Girl on the Train	No	Yes	3
11765	65	1	MOVIE	0	Animation	The Adventures of Petey and Friends	No	Yes	1
16659	90	1	MOVIE	0	Animation	The Boss Baby	No	Yes	10
16657	1307	21	SERIES/EPISODES	15	Animation	Dora the Explorer	No	Yes	3
18941	1358	22	SERIES/EPISODES	8	Animation	SpongeBob quarePants	No	Yes	2
160	611	10	SERIES/EPISODES	7	Animation	Fireman am	No	Yes	1
10154	3929	65	SERIES/EPISODES	1	Action	XIII: The eries	No	Yes	2
1569	58	0	MOVIE	0	Animation	Coco	No	Yes	2
21288	72	1	MOVIE	0	Animation	Moana	No	Yes	8
26651	1305	21	SERIES/EPISODES	23	Animation	My Little Pony: Friendship Is Magic  	No	Yes	2
30342	10	0	MOVIE	0	Animation	Batman and Harley Quinn	No	Yes	1
21084	10	0	MOVIE	0	Drama	Unforgettable	No	Yes	3
3241	101	1	MOVIE	0	Biography	The Birth of a Nation	No	Yes	7
18066	25	0	MOVIE	0	Animation	The Boss Baby	No	Yes	10
13641	723	12	MOVIE	0	Drama	Finding Forrester	No	Yes	5
15782	81	1	MOVIE	0	Animation	The Boss Baby	No	Yes	10
13437	82	1	MOVIE	0	Animation	Tad the Lost Explorer	No	Yes	1
8074	21	0	MOVIE	0	Biography	Rebel in the Rye	No	Yes	1
8543	8	0	MOVIE	0	Action	Master and Commander: The Far ide ...	No	Yes	1
17801	13	0	MOVIE	0	Action	First trike	No	Yes	1
1100	75	1	MOVIE	0	Animation	The Mermaid Princess	No	Yes	1
24163	3	0	MOVIE	0	Animation	The Nut Job : Nutty by Nature	No	Yes	1
4587	5	0	MOVIE	0	Thriller	Broken Vows	No	Yes	2
24508	354	5	MOVIE	0	Animation	The murfs	No	Yes	6
6463	318	5	SERIES/EPISODES	20	Animation	Borj Al Oloum	No	Yes	1
28262	5	0	MOVIE	0	Animation	Trolls	No	Yes	3
24775	15	0	MOVIE	0	Drama	Collateral Beauty	No	Yes	4
19881	19	0	MOVIE	0	Biography	Churchill	No	Yes	2
16190	75	1	MOVIE	0	Comedy	22 Jump treet	No	Yes	3
19677	6	0	MOVIE	0	Animation	Ferdinand	No	Yes	3
31341	2357	39	SERIES/EPISODES	10	Action	Vikings	No	Yes	7
32422	38	0	MOVIE	0	Family	How To Train Your Dragon	No	Yes	1
29873	759	12	SERIES/EPISODES	26	Drama	Ward Jouri  	No	Yes	1
19412	68	1	MOVIE	0	Biography	The Greatest howman	No	Yes	2
19004	5	0	MOVIE	0	Horror	A Cure for Wellness	No	Yes	3
10827	77	1	MOVIE	0	Action	Automata	No	Yes	1
16129	82	1	MOVIE	0	Animation	Surf's Up : WaveMania	No	Yes	1
24897	30	0	MOVIE	0	Documentary	An Inconvenient equel: Truth to Power	No	Yes	2
30281	95	1	MOVIE	0	Drama	Unforgettable	No	Yes	3
13029	2316	38	SERIES/EPISODES	15	Action	Teen Wolf	No	Yes	10
6055	83	1	MOVIE	0	Drama	The Eagle	No	Yes	5
14049	99	1	MOVIE	0	Biography	The Birth of a Nation	No	Yes	7
20207	101	1	MOVIE	0	Biography	The Birth of a Nation	No	Yes	7
14518	12	0	MOVIE	0	Documentary	An Inconvenient equel: Truth to Power	No	Yes	2
30750	59	0	MOVIE	0	Thriller	Saw	No	Yes	2
19147	15	0	SERIES/EPISODES	1	Comedy	Jane the Virgin	No	Yes	3
9420	87	1	MOVIE	0	Comedy	Going in tyle	No	Yes	3
17597	7	0	MOVIE	0	Thriller	Piranha DD	No	Yes	1
8482	14	0	MOVIE	0	Drama	Billy Lynn’s Long Halftime Walk	No	Yes	1
33299	96	1	MOVIE	0	Animation	Moana	No	Yes	8
19616	3306	55	SERIES/EPISODES	5	Drama	Power	Yes	No	1
3445	611	10	MOVIE	0	Thriller	Drive Angry	No	Yes	10
15660	194	3	MOVIE	0	Animation	The Boss Baby	No	Yes	10
2446	91	1	MOVIE	0	Animation	The Boss Baby	No	Yes	10
28466	9	0	MOVIE	0	Drama	Golden Exits	No	Yes	1
32830	73	1	MOVIE	0	Animation	Moana	No	Yes	8
610	53	0	MOVIE	0	Drama	Everything Will Be Fine	No	Yes	2
30546	54	0	MOVIE	0	Biography	The Birth of a Nation	No	Yes	7
28588	26	0	MOVIE	0	Animation	Storks	No	Yes	1
23837	67	1	MOVIE	0	Animation	Moana	No	Yes	8
26325	2547	42	SERIES/EPISODES	4	Drama	24	Yes	No	6
33768	81	1	MOVIE	0	NOT_DEFINED_IN_UMS	Dunkirk	No	Yes	1
10684	65	1	MOVIE	0	Animation	The Adventures of Petey and Friends	No	Yes	1
27732	79	1	MOVIE	0	Drama	Feed	No	Yes	1
11092	6831	113	MOVIE	0	Comedy	How Do You Know	No	Yes	3
25938	2646	44	SERIES/EPISODES	18	Drama	Bayna Laylatin Wa Dohaha	No	Yes	2
28956	25	0	MOVIE	0	Comedy	Youm Maloosh Lazma	No	Yes	10
22226	9	0	MOVIE	0	Animation	The Nut Job : Nutty by Nature	No	Yes	1
15578	51	0	MOVIE	0	Animation	The Boss Baby	No	Yes	10
12255	15	0	MOVIE	0	Action	Transporter	No	Yes	1
31974	101	1	MOVIE	0	Action	Spider-Man	No	Yes	1
29425	70	1	MOVIE	0	Action	Instant Death	No	Yes	1
5933	78	1	MOVIE	0	Biography	Sully	No	Yes	6
14987	81	1	MOVIE	0	Animation	Coco	No	Yes	2
15721	1380	23	SERIES/EPISODES	2	Animation	Dora the Explorer	No	Yes	3
12724	89	1	MOVIE	0	Thriller	Broken Vows	No	Yes	2
29894	55	0	MOVIE	0	Animation	Lego DC uper Hero Girls: Brain Drain	No	Yes	1
15742	82	1	MOVIE	0	Biography	Rebel in the Rye	No	Yes	1
13193	232	3	SERIES/EPISODES	3	Horror	The Walking Dead	No	Yes	10
24327	8	0	MOVIE	0	Drama	Unfriended	No	Yes	1
32443	27	0	MOVIE	0	Action	Maze Runner: The Death Cure	No	Yes	1
27242	99	1	MOVIE	0	Horror	Rings	No	Yes	10
1590	14972	249	MOVIE	0	Drama	Finding Forrester	No	Yes	5
2059	74	1	MOVIE	0	Animation	The Mermaid Princess	No	Yes	1
27997	62	1	MOVIE	0	Animation	Trolls	No	Yes	3
22247	89	1	MOVIE	0	Drama	Fences	No	Yes	2
30363	95	1	MOVIE	0	Drama	Unforgettable	No	Yes	3
25265	50	0	MOVIE	0	Animation	Storks	No	Yes	1
33156	74	1	MOVIE	0	Animation	Batman and Harley Quinn	No	Yes	1
22716	91	1	MOVIE	0	Animation	The Boss Baby	No	Yes	10
33625	21	0	MOVIE	0	Drama	If I tay	No	Yes	3
31301	5582	93	MOVIE	0	Comedy	Baywatch	No	Yes	6
16680	26	0	MOVIE	0	Animation	Trolls	No	Yes	3
6219	23	0	SERIES/EPISODES	1	Drama	A-Shaqiqatan	No	Yes	1
14600	3	0	MOVIE	0	Drama	Everything  Everything	No	Yes	1
15273	6406	106	MOVIE	0	Horror	Rings	No	Yes	10
4139	94	1	MOVIE	0	Drama	The hape of Water	No	Yes	3
23858	63	1	MOVIE	0	Animation	The Adventures of Petey and Friends	No	Yes	1
20371	19	0	MOVIE	0	Action	Stalingrad	No	Yes	1
14804	120	2	MOVIE	0	Animation	The Tale of Princess Kaguya	No	Yes	1
26203	12	0	MOVIE	0	Action	The Lord of the Rings Part	No	Yes	1
6688	23	0	MOVIE	0	Animation	The Adventures of Petey and Friends	No	Yes	1
23185	1258	20	SERIES/EPISODES	1	Thriller	Hannibal	No	Yes	3
32912	5	0	MOVIE	0	Horror	Phoenix Forgotten	No	Yes	1
23429	5905	98	MOVIE	0	Action	Jumanji	No	Yes	2
21309	17	0	MOVIE	0	Thriller	Broken Vows	No	Yes	2
11113	91	1	MOVIE	0	Animation	The Boss Baby	No	Yes	10
2202	790	13	SERIES/EPISODES	16	Horror	The Walking Dead	Yes	No	10
15538	38	0	SERIES/EPISODES	19	Animation	Blaze And The Monster Machines	No	Yes	4
10787	10681	178	SERIES/EPISODES	1	Action	Justified	Yes	No	1
33055	93	1	MOVIE	0	Animation	Trolls	No	Yes	3
27488	26	0	MOVIE	0	Comedy	Wilson	No	Yes	1
14131	42	0	MOVIE	0	Drama	Collateral Beauty	No	Yes	4
2997	57	0	MOVIE	0	Action	The Maze Runner	No	Yes	1
30506	60	1	MOVIE	0	Animation	Hatched: Chicks Gone Wild	No	Yes	1
16354	744	12	SERIES/EPISODES	45	Animation	Marcus Level  	No	Yes	1
14396	93	1	MOVIE	0	Animation	Trolls	No	Yes	3
31566	91	1	MOVIE	0	Action	The Accountant	No	Yes	2
5220	145	2	MOVIE	0	Action	Prince of Persia: The ands of Time	No	Yes	1
2671	10	0	MOVIE	0	Animation	Spirit: tallion of the Cimarron	No	Yes	1
19698	80	1	MOVIE	0	Action	Kingsman: The Golden Circle	No	Yes	1
12989	15	0	MOVIE	0	Animation	Tad the Lost Explorer	No	Yes	1
13458	56	0	MOVIE	0	Action	Honey  I Blew Up the Kid	No	Yes	1
122	93	1	MOVIE	0	Animation	Trolls	No	Yes	3
25408	19	0	MOVIE	0	Action	Free Fire	No	Yes	1
23654	66	1	MOVIE	0	Animation	Storks	No	Yes	1
30975	7	0	MOVIE	0	Comedy	Mike and Dave Need Wedding Dates	No	Yes	1
7035	100	1	MOVIE	0	Biography	The Birth of a Nation	No	Yes	7
20636	988	16	MOVIE	0	Action	Battle Los Angeles	No	Yes	1
17292	784	13	SERIES/EPISODES	6	Animation	Marcus Level  	No	Yes	1
3140	12	0	MOVIE	0	Comedy	Tambola	No	Yes	1
15620	81	1	MOVIE	0	Animation	Ferdinand	No	Yes	3
11725	103	1	MOVIE	0	Action	Instant Death	No	Yes	1
26754	65	1	MOVIE	0	Animation	The Adventures of Petey and Friends	No	Yes	1
591	80	1	MOVIE	0	Action	Geostorm	No	Yes	3
20310	4	0	MOVIE	0	Animation	Tad the Lost Explorer	No	Yes	1
10053	64	1	MOVIE	0	Drama	Billy Lynn’s Long Halftime Walk	No	Yes	1
32708	54	0	MOVIE	0	Family	Max : White House Hero	No	Yes	1
13071	81	1	MOVIE	0	Action	Geostorm	No	Yes	3
21187	80	1	MOVIE	0	Animation	Coco	No	Yes	2
22512	7	0	SERIES/EPISODES	6	Drama	A-Sayeda Al Oula	No	Yes	2
9176	11	0	MOVIE	0	Biography	Hands of tone	No	Yes	1
2141	8	0	MOVIE	0	Horror	Escape Room	No	Yes	2
21860	66	1	MOVIE	0	Animation	When Marnie Was There	No	Yes	1
4486	73	1	MOVIE	0	Animation	Moana	No	Yes	8
16293	13	0	MOVIE	0	Animation	Trolls	No	Yes	3
1937	5590	93	MOVIE	0	Animation	The Boss Baby	No	Yes	10
26815	2878	47	SERIES/EPISODES	6	Drama	Outcast	No	Yes	1
18638	15	0	SERIES/EPISODES	8	Action	Supergirl	No	Yes	4
7504	14	0	MOVIE	0	Action	Inferno	No	Yes	1
10726	80	1	MOVIE	0	NOT_DEFINED_IN_UMS	Dunkirk	No	Yes	1
10522	10	0	MOVIE	0	Thriller	The Raven	Yes	No	4
24878	15	0	MOVIE	0	Comedy	Baywatch	No	Yes	6
19311	10	0	MOVIE	0	Animation	The Mermaid Princess	No	Yes	1
21656	88	1	MOVIE	0	Horror	Annabelle: Creation	No	Yes	7
33259	115	1	MOVIE	0	Animation	Dragon Ball Z: Resurrection F	No	Yes	1
27284	78	1	MOVIE	0	Animation	Toy tory	No	Yes	1
16150	1284	21	SERIES/EPISODES	25	Animation	Littlest Pet hop	No	Yes	1
8177	1396	23	SERIES/EPISODES	26	Comedy	Kalam A-Nas	No	Yes	4
13744	87	1	MOVIE	0	Horror	Inside	No	Yes	4
32056	94	1	MOVIE	0	Animation	Trolls	No	Yes	3
33320	14	0	MOVIE	0	Action	Machete Kills	No	Yes	1
31118	22	0	MOVIE	0	Horror	Alien: Covenant	No	Yes	7
12337	2	0	MOVIE	0	Action	Allied	No	Yes	1
2610	730	12	SERIES/EPISODES	49	Animation	Marcus Level  	No	Yes	1
6770	25	0	MOVIE	0	Comedy	Youm Maloosh Lazma	No	Yes	10
2467	44	0	MOVIE	0	Animation	Trolls	No	Yes	3
8442	4	0	MOVIE	0	Animation	The Mermaid Princess	No	Yes	1
2345	1459	24	SERIES/EPISODES	5	Drama	House	Yes	No	10
16558	1334	22	MOVIE	0	Animation	Alvin and the Chipmunks: The queakquel	No	Yes	1
22064	4	0	MOVIE	0	Drama	Collateral Beauty	No	Yes	4
16497	49	0	MOVIE	0	Animation	The Mermaid Princess	No	Yes	1
19780	5164	86	MOVIE	0	Horror	Carrie	No	Yes	6
11460	1175	19	MOVIE	0	Action	The Hunter's Prayer	No	Yes	1
34197	10	0	MOVIE	0	Animation	The Boss Baby	No	Yes	10
14213	98	1	MOVIE	0	Documentary	An Inconvenient equel: Truth to Power	No	Yes	2
29507	10	0	MOVIE	0	Action	The Accountant	No	Yes	2
14539	49	0	MOVIE	0	Drama	Everything Will Be Fine	No	Yes	2
14417	82	1	MOVIE	0	Animation	Tom & Jerry: Willy Wonka and the Chocolate	No	Yes	1
23940	669	11	SERIES/EPISODES	7	Romance	The Affair	No	Yes	10
8972	57	0	MOVIE	0	Biography	Rebel in the Rye	No	Yes	1
34136	46	0	MOVIE	0	Action	Secrets of Deception	No	Yes	1
26693	825	13	SERIES/EPISODES	19	Animation	Puppy In My Pocket  	No	Yes	1
10930	3454	57	MOVIE	0	Animation	The Mermaid Princess	No	Yes	1
1407	617	10	SERIES/EPISODES	38	Animation	Chuggington	Yes	No	1
10461	91	1	MOVIE	0	Animation	The Boss Baby	No	Yes	10
5893	86	1	MOVIE	0	Horror	Inside	No	Yes	4
30180	91	1	MOVIE	0	Animation	The Boss Baby	No	Yes	10
26224	59	0	MOVIE	0	Comedy	Going in tyle	No	Yes	3
15090	78	1	MOVIE	0	Action	Instant Death	No	Yes	1
15559	122	2	MOVIE	0	Comedy	Big Daddy	No	Yes	1
23206	141	2	MOVIE	0	Animation	Ice Age: Dawn of the Dinosaurs	No	Yes	1
13010	74	1	MOVIE	0	Animation	The Mermaid Princess	No	Yes	1
1672	68	1	MOVIE	0	Drama	Blade Runner	No	Yes	1
20657	13	0	MOVIE	0	Horror	Inside	No	Yes	4
9054	60	1	MOVIE	0	Animation	Starship Troopers: Traitor of Mars	No	Yes	1
32729	59	0	MOVIE	0	Comedy	Baywatch	No	Yes	6
29242	1989	33	SERIES/EPISODES	1	Drama	Ya Reit	No	Yes	2
8381	43	0	MOVIE	0	Animation	The Adventures of Petey and Friends	No	Yes	1
3956	102	1	MOVIE	0	Animation	The Jetsons & WWE: Robo-WrestleMania!	No	Yes	1
32260	41	0	MOVIE	0	Animation	The Mermaid Princess	No	Yes	1
734	77	1	MOVIE	0	Drama	Billy Lynn’s Long Halftime Walk	No	Yes	1
23675	87	1	MOVIE	0	Animation	Lego DC Comics uper Heroes: The Flash	No	Yes	1
7443	60	1	MOVIE	0	Comedy	Baywatch	No	Yes	6
25755	77	1	MOVIE	0	Drama	The hape of Water	No	Yes	3
15151	64	1	MOVIE	0	Comedy	Baywatch	No	Yes	6
7912	124	2	MOVIE	0	Animation	Kung Fu Panda	No	Yes	1
31322	28	0	MOVIE	0	Drama	The hape of Water	No	Yes	3
17170	93	1	MOVIE	0	Animation	Ferdinand	No	Yes	3
8585	16	0	MOVIE	0	Animation	The Boss Baby	No	Yes	10
22737	38	0	MOVIE	0	Action	Pirates of the Caribbean: Dead Men Tell...	No	Yes	2
14152	1153	19	SERIES/EPISODES	12	Animation	Slugterra	No	Yes	2
6505	81	1	MOVIE	0	Animation	Tad the Lost Explorer	No	Yes	1
19719	92	1	MOVIE	0	Comedy	Paris Can Wait	No	Yes	1
3018	72	1	MOVIE	0	Animation	Moana	No	Yes	8
18169	43	0	MOVIE	0	Animation	The Adventures of Petey and Friends	No	Yes	1
31791	7	0	MOVIE	0	Animation	The Mermaid Princess	No	Yes	1
6974	41	0	MOVIE	0	Action	The Accountant	No	Yes	2
2625	753	12	SERIES/EPISODES	8	Animation	Dora The Explorer	No	Yes	1
26138	41	0	MOVIE	0	Comedy	Fist Fight	No	Yes	2
7946	6	0	MOVIE	0	Comedy	Why Him	No	Yes	2
7418	63	1	MOVIE	0	Horror	Land Of The Dead	No	Yes	5
19307	41	0	MOVIE	0	Animation	The Boss Baby	No	Yes	10
15860	91	1	MOVIE	0	Animation	The Boss Baby	No	Yes	10
20775	5	0	MOVIE	0	Biography	Million Dollar Arm	No	Yes	1
11374	16	0	MOVIE	0	Animation	Surf's Up : WaveMania	No	Yes	1
6358	19	0	MOVIE	0	Animation	Coco	No	Yes	2
11660	99	1	SERIES/EPISODES	0	Horror	The Walking Dead	No	Yes	10
6215	94	1	MOVIE	0	Drama	Aftermath	No	Yes	2
9784	6161	102	MOVIE	0	Comedy	Big Mommas: Like Father  Like on	No	Yes	2
1035	82	1	MOVIE	0	Action	Kingsman: The Golden Circle	No	Yes	1
18287	3	0	MOVIE	0	Horror	The Exorcism Of Emily Rose	No	Yes	1
7805	91	1	MOVIE	0	Animation	The Boss Baby	No	Yes	10
33846	86	1	MOVIE	0	Comedy	Going in tyle	No	Yes	3
3012	5651	94	MOVIE	0	Animation	The Boss Baby	No	Yes	10
11986	115	1	MOVIE	0	Animation	Dragon Ball Z: Resurrection F	No	Yes	1
25343	8	0	MOVIE	0	Drama	Unbroken	No	Yes	10
30971	32	0	MOVIE	0	Biography	The Birth of a Nation	No	Yes	7
3115	19	0	MOVIE	0	Animation	Coco	No	Yes	2
34050	21	0	MOVIE	0	NOT_DEFINED_IN_UMS	Dunkirk	No	Yes	1
17900	45	0	MOVIE	0	Animation	The Adventures of Petey and Friends	No	Yes	1
20142	2509	41	MOVIE	0	Action	The Amazing pider-Man	No	Yes	10
16880	91	1	MOVIE	0	Animation	The Boss Baby	No	Yes	10
19694	2434	40	SERIES/EPISODES	3	Drama	Hell On Wheels	No	Yes	2
14657	2	0	MOVIE	0	Animation	The Mermaid Princess	No	Yes	1
21917	25	0	MOVIE	0	Action	Trespass Against Us	No	Yes	1
28952	6	0	SERIES/EPISODES	2	Comedy	House of Lies	No	Yes	1
27423	3	0	MOVIE	0	Action	Men In Black	No	Yes	3
25404	2192	36	SERIES/EPISODES	2	Drama	Doctorah Fi Al Hob	No	Yes	1
10905	224	3	MOVIE	0	Action	Rollerball	No	Yes	1
8722	93	1	MOVIE	0	Animation	Trolls	No	Yes	3
21019	12	0	MOVIE	0	Animation	The Mermaid Princess	No	Yes	1
17696	94	1	MOVIE	0	Drama	The hape of Water	No	Yes	3
24323	386	6	SERIES/EPISODES	1	Comedy	Kalam A-Nas	No	Yes	4
16245	5	0	MOVIE	0	Drama	Two Lovers and a Bear	No	Yes	1
15269	43	0	MOVIE	0	Documentary	A Very British Gangster	No	Yes	1
3727	97	1	MOVIE	0	Action	Assassin's Creed	No	Yes	2
25873	24	0	MOVIE	0	Action	Vigilante Diaries	No	Yes	1
12863	13	0	MOVIE	0	Animation	Trolls	No	Yes	3
831	4379	72	MOVIE	0	Comedy	Easy A	No	Yes	2
1933	2	0	MOVIE	0	Animation	The Mermaid Princess	No	Yes	1
5010	6510	108	MOVIE	0	Action	The Amazing pider-Man	No	Yes	10
5073	74	1	MOVIE	0	Animation	Ferdinand	No	Yes	3
19164	2	0	MOVIE	0	Animation	The Little Vampire	No	Yes	1
5174	96	1	MOVIE	0	Comedy	Snatched	No	Yes	1
24405	89	1	MOVIE	0	Action	Thor: Ragnarok	No	Yes	1
934	4	0	MOVIE	0	Action	War for the Planet of the Apes	No	Yes	3
23324	14	0	MOVIE	0	Horror	The Box	No	Yes	4
3094	92	1	MOVIE	0	Animation	Ferdinand	No	Yes	3
1912	25	0	MOVIE	0	Documentary	An Inconvenient equel: Truth to Power	No	Yes	2
3136	95	1	MOVIE	0	Drama	Unforgettable	No	Yes	3
8846	11	0	MOVIE	0	Comedy	Baywatch	No	Yes	6
2932	50	0	MOVIE	0	Animation	Ferdinand	No	Yes	3
730	452	7	SERIES/EPISODES	6	Animation	Dora The Explorer	No	Yes	1
3952	3	0	MOVIE	0	Comedy	Elvis & Nixon	No	Yes	1
30012	4897	81	MOVIE	0	Action	George of the Jungle	No	Yes	1
28319	72	1	MOVIE	0	Animation	Moana	No	Yes	8
25955	116	1	MOVIE	0	Animation	Dragon Ball Z: Resurrection F	No	Yes	1
9029	8	0	MOVIE	0	Animation	The Boss Baby	No	Yes	10
32521	88	1	MOVIE	0	Action	Into the torm	No	Yes	1
9988	78	1	MOVIE	0	Action	Sleight	No	Yes	1
7235	8	0	SERIES/EPISODES	11	Animation	PAW Patrol	No	Yes	4
32500	99	1	MOVIE	0	Horror	Rings	No	Yes	10
25465	100	1	MOVIE	0	Biography	The Birth of a Nation	No	Yes	7
17206	86	1	MOVIE	0	Animation	Monster House	No	Yes	1
23732	88	1	MOVIE	0	Drama	Collateral Beauty	No	Yes	4
10783	95	1	MOVIE	0	Drama	Unforgettable	No	Yes	3
21263	16	0	MOVIE	0	Action	Harry Potter - Part	No	Yes	1
13189	62	1	SERIES/EPISODES	2	Drama	Hal Manayer  	No	Yes	3
21122	10	0	MOVIE	0	Comedy	Youm Maloosh Lazma	No	Yes	10
33602	101	1	MOVIE	0	Biography	The Birth of a Nation	No	Yes	7
5094	96	1	MOVIE	0	Animation	Ferdinand	No	Yes	3
10926	66	1	MOVIE	0	Comedy	Along Came Polly	No	Yes	2
19387	2	0	MOVIE	0	Animation	The Adventures of Petey and Friends	No	Yes	1
5542	93	1	MOVIE	0	Animation	Trolls	No	Yes	3
18960	327	5	SERIES/EPISODES	4	Animation	Pingu	No	Yes	1
23875	90	1	MOVIE	0	Animation	The Boss Baby	No	Yes	10
19103	695	11	MOVIE	0	Biography	Ray	No	Yes	3
20081	8	0	MOVIE	0	Animation	Hotel Transylvania	No	Yes	2
19143	5806	96	MOVIE	0	Action	The November Man	No	Yes	4
32990	9	0	MOVIE	0	Action	Morning tar	No	Yes	1
17431	190	3	MOVIE	0	Action	Men In Black	No	Yes	3
8703	43	0	MOVIE	0	Thriller	Triple Nine	No	Yes	1
8417	100	1	MOVIE	0	Biography	The Birth of a Nation	No	Yes	7
21326	4062	67	MOVIE	0	Action	Total Recall	No	Yes	4
31379	36	0	MOVIE	0	Animation	The Mermaid Princess	No	Yes	1
30319	55	0	MOVIE	0	Comedy	Mamma Mia	No	Yes	2
24548	26	0	MOVIE	0	Action	xXx: Return of Xander Cage	No	Yes	2
2177	93	1	MOVIE	0	Animation	Trolls	No	Yes	3
31053	4590	76	MOVIE	0	Action	The corpion King : Rise Of A Warrior	No	Yes	3
4808	29	0	SERIES/EPISODES	0	Drama	Caramel  	No	Yes	3
14291	90	1	MOVIE	0	Animation	The Boss Baby	No	Yes	10
19858	93	1	MOVIE	0	Animation	The Boss Baby	No	Yes	10
8520	98	1	MOVIE	0	Comedy	Diary of a Wimpy Kid: Dog Days	No	Yes	1
29074	50	0	MOVIE	0	Animation	Ferdinand	No	Yes	3
23772	38	0	SERIES/EPISODES	1	Drama	Madrasat Al Hob	No	Yes	3
200	28	0	MOVIE	0	Action	The Marine : Battleground	No	Yes	1
26302	11	0	SERIES/EPISODES	0	Animation	The Penguins of Madagascar	No	Yes	1
26281	2	0	MOVIE	0	Action	War for the Planet of the Apes	No	Yes	3
3218	28	0	MOVIE	0	Comedy	While We’re Young	No	Yes	1
17227	16	0	MOVIE	0	Action	Allied	No	Yes	1
14760	89	1	MOVIE	0	Animation	The Boss Baby	No	Yes	10
7786	6	0	MOVIE	0	Drama	Please tand By	No	Yes	1
22672	69	1	MOVIE	0	Action	xXx: Return of Xander Cage	No	Yes	2
25221	91	1	MOVIE	0	Action	The Accountant	No	Yes	2
19919	94	1	MOVIE	0	Animation	Smurfs: The Lost Village	No	Yes	1
9193	6	0	MOVIE	0	Animation	Captain Underpants: The First Epic Movie	No	Yes	1
26750	1782	29	SERIES/EPISODES	18	Comedy	Melissa & Joey	No	Yes	1
20184	1320	22	SERIES/EPISODES	13	Animation	Blaze And The Monster Machines	No	Yes	4
22876	7705	128	MOVIE	0	Family	Beauty and the Beast	No	Yes	3
2015	6120	102	MOVIE	0	Horror	Inside	No	Yes	4
3157	433	7	SERIES/EPISODES	6	Action	The Flash	No	Yes	5
6440	1269	21	SERIES/EPISODES	7	Comedy	Friends	No	Yes	10
21061	44	0	MOVIE	0	Action	Ghost in the hell	No	Yes	1
9559	8	0	MOVIE	0	Animation	Dragon Ball Z: Resurrection F	No	Yes	1
1077	70	1	MOVIE	0	Animation	Moana	No	Yes	8
18613	100	1	SERIES/EPISODES	16	Comedy	Friends	No	Yes	10
32746	109	1	MOVIE	0	Animation	The Jetsons & WWE: Robo-WrestleMania!	No	Yes	1
6581	14	0	MOVIE	0	Animation	The Boss Baby	No	Yes	10
12272	97	1	MOVIE	0	Drama	My Cousin Rachel	No	Yes	1
32725	9	0	MOVIE	0	Comedy	My Old Lady	No	Yes	1
9315	12	0	MOVIE	0	Comedy	Why Did I Get Married Too?	No	Yes	3
20653	99	1	MOVIE	0	Action	Baby Driver	No	Yes	2
19347	2667	44	SERIES/EPISODES	1	Drama	24	No	Yes	6
4564	6	0	MOVIE	0	Drama	Closer	No	Yes	1
9601	23	0	MOVIE	0	Animation	The Mermaid Princess	No	Yes	1
22203	14	0	MOVIE	0	Animation	Trolls	No	Yes	3
29524	96	1	SERIES/EPISODES	5	Comedy	Friends	No	Yes	10
30176	2	0	MOVIE	0	Comedy	Blank Check	No	Yes	4
28544	57	0	MOVIE	0	Drama	Collateral Beauty	No	Yes	4
6091	94	1	MOVIE	0	Animation	Trolls	No	Yes	3
32685	60	1	MOVIE	0	Comedy	The Family Man	No	Yes	4
21530	86	1	MOVIE	0	Comedy	Killing Gunther	No	Yes	1
24670	6	0	MOVIE	0	Action	The Marine : Battleground	No	Yes	1
14005	93	1	MOVIE	0	Animation	Trolls	No	Yes	3
28096	81	1	MOVIE	0	Action	Parker	No	Yes	3
22081	92	1	MOVIE	0	Drama	The hape of Water	No	Yes	3
11456	96	1	MOVIE	0	Action	Resident Evil: The Final Chapter	No	Yes	1
30462	21	0	MOVIE	0	Action	Instant Death	No	Yes	1
7887	27	0	MOVIE	0	Action	Assassin's Creed	No	Yes	2
17717	72	1	MOVIE	0	Animation	Moana	No	Yes	8
19185	35	0	MOVIE	0	Comedy	Baywatch	No	Yes	6
15433	2	0	MOVIE	0	Animation	Trolls	No	Yes	3
25017	90	1	MOVIE	0	Animation	The Boss Baby	No	Yes	10
18920	68	1	MOVIE	0	NOT_DEFINED_IN_UMS	Dunkirk	No	Yes	1
34071	1413	23	MOVIE	0	Animation	The Nut Job : Nutty by Nature	No	Yes	1
23425	2139	35	MOVIE	0	Animation	Alvin and the Chipmunks: The queakquel	No	Yes	1
17656	21	0	SERIES/EPISODES	1	Action	Top Gear	No	Yes	1
13271	323	5	MOVIE	0	Action	Morning tar	No	Yes	1
1975	6998	116	MOVIE	0	Action	Allied	No	Yes	1
1260	60	1	MOVIE	0	Animation	The murfs	No	Yes	6
8276	2	0	MOVIE	0	Animation	Sinbad: Legend Of The even eas	No	Yes	1
1403	112	1	MOVIE	0	Comedy	Zombieland	No	Yes	2
3178	91	1	MOVIE	0	Horror	The Devil's Candy	No	Yes	1
13170	43	0	MOVIE	0	Drama	Dolphin Tale	No	Yes	1
29625	94	1	MOVIE	0	Animation	Ferdinand	No	Yes	3
19450	1384	23	SERIES/EPISODES	7	Animation	PAW Patrol	No	Yes	4
14373	96	1	MOVIE	0	Action	War for the Planet of the Apes	No	Yes	3
20428	39	0	MOVIE	0	Biography	Rosewater	No	Yes	2
3239	137	2	MOVIE	0	Family	The BFG	No	Yes	10
5115	21	0	MOVIE	0	Comedy	The Lovers	No	Yes	1
26649	84	1	MOVIE	0	Animation	Surf's Up : WaveMania	No	Yes	1
5788	5564	92	MOVIE	0	Animation	The Boss Baby	No	Yes	10
11090	68	1	MOVIE	0	Documentary	He Named Me Malala	No	Yes	4
26241	7820	130	MOVIE	0	Drama	Finding Forrester	Yes	No	5
8459	462	7	SERIES/EPISODES	1	Family	Allo Marhaba	No	Yes	1
26384	2479	41	SERIES/EPISODES	8	Horror	The Walking Dead	Yes	No	10
11559	126	2	MOVIE	0	Animation	Ice Age: Collision Course	No	Yes	1
13843	97	1	MOVIE	0	Action	Assassin's Creed	No	Yes	2
27587	66	1	MOVIE	0	Action	30 Minutes Or Less	No	Yes	1
28994	16	0	MOVIE	0	Action	John Wick: Chapter	No	Yes	2
29789	32	0	MOVIE	0	Documentary	An Inconvenient equel: Truth to Power	No	Yes	2
5054	13	0	SERIES/EPISODES	1	Drama	24: Live Another Day	No	Yes	1
21265	8	0	MOVIE	0	Horror	Inside	No	Yes	4
24569	8	0	MOVIE	0	Animation	Tom & Jerry: Willy Wonka and the Chocolate	No	Yes	1
17982	41	0	MOVIE	0	Animation	Justice League Adventures: Trapped In Time	No	Yes	1
21877	2443	40	SERIES/EPISODES	7	Drama	Grey's Anatomy	No	Yes	6
8236	25	0	MOVIE	0	Biography	The Birth of a Nation	No	Yes	7
27400	15	0	MOVIE	0	Animation	Storks	No	Yes	1
13639	8	0	MOVIE	0	Action	Unlocked	No	Yes	1
25711	21114	351	MOVIE	0	Action	Doctor trange	Yes	No	1
2972	57	0	MOVIE	0	Animation	Ferdinand	No	Yes	3
16922	81	1	MOVIE	0	Action	Geostorm	No	Yes	3
25976	49	0	MOVIE	0	Comedy	The Pacifier	No	Yes	2
33583	73	1	MOVIE	0	Animation	Surf's Up : WaveMania	No	Yes	1
23427	91	1	MOVIE	0	Thriller	Broken Vows	No	Yes	2
10335	98	1	MOVIE	0	Documentary	An Inconvenient equel: Truth to Power	No	Yes	2
15740	341	5	SERIES/EPISODES	7	Horror	American Horror tory	No	Yes	2
8173	206	3	SERIES/EPISODES	13	Horror	The Walking Dead	No	Yes	10
5828	65	1	MOVIE	0	Animation	The Adventures of Petey and Friends	No	Yes	1
3933	15	0	MOVIE	0	Animation	The Boss Baby	No	Yes	10
16779	16	0	MOVIE	0	Animation	Trolls	No	Yes	3
8358	87	1	MOVIE	0	Drama	Collateral Beauty	No	Yes	4
15168	19	0	MOVIE	0	Drama	100 treets	No	Yes	1
2322	1262	21	SERIES/EPISODES	2	Comedy	Friends	No	Yes	10
13292	27	0	MOVIE	0	Thriller	Drive Angry	No	Yes	10
25732	32	0	MOVIE	0	Drama	Hurricane eason	No	Yes	1
29953	120	2	MOVIE	0	Animation	Kung Fu Panda	No	Yes	1
10865	1146	19	SERIES/EPISODES	4	Comedy	2 Fil-Isaaf  	No	Yes	1
16005	92	1	MOVIE	0	Animation	The Boss Baby	No	Yes	10
32033	136	2	MOVIE	0	Animation	The pongeBob quarePants Movie	No	Yes	1
13456	4443	74	MOVIE	0	Animation	The Mermaid Princess	No	Yes	1
33848	20	0	SERIES/EPISODES	8	Horror	The Walking Dead	Yes	No	10
24121	87	1	MOVIE	0	Animation	Emoji Movie	No	Yes	1
10438	21	0	MOVIE	0	Animation	The Boss Baby	No	Yes	10
2505	91	1	MOVIE	0	Animation	The Boss Baby	No	Yes	10
31890	5283	88	MOVIE	0	Animation	Ice Age: The Meltdown	No	Yes	1
28077	60	1	MOVIE	0	Comedy	Baywatch	No	Yes	6
27547	88	1	MOVIE	0	Comedy	Snatched	No	Yes	1
10234	118	1	MOVIE	0	Action	Tears of The un	No	Yes	1
25589	831	13	SERIES/EPISODES	9	Animation	Puppy In My Pocket  	No	Yes	1
6217	2	0	MOVIE	0	Action	Snow White and the Huntsman	No	Yes	4
3056	90	1	SERIES/EPISODES	1	Drama	Al-Gayyada  	No	Yes	1
31339	93	1	MOVIE	0	Animation	Trolls	No	Yes	3
15576	3	0	MOVIE	0	Action	Nightmaster	No	Yes	1
19267	114	1	SERIES/EPISODES	1	Action	Vikings	No	Yes	7
31217	101	1	MOVIE	0	Animation	The Jetsons & WWE: Robo-WrestleMania!	No	Yes	1
14066	95	1	MOVIE	0	Comedy	Why Him	No	Yes	2
7950	36	0	MOVIE	0	Horror	Annabelle	No	Yes	3
5544	4	0	MOVIE	0	Documentary	Russia's Wild Arctic	No	Yes	2
26548	91	1	MOVIE	0	Animation	The Boss Baby	No	Yes	10
12396	83	1	MOVIE	0	Action	Geostorm	No	Yes	3
15719	90	1	MOVIE	0	Animation	The Boss Baby	No	Yes	10
2383	50	0	MOVIE	0	Animation	Storks	No	Yes	1
1262	764	12	MOVIE	0	Thriller	Broken Vows	No	Yes	2
25793	18	0	MOVIE	0	Animation	The Adventures of Petey and Friends	No	Yes	1
19553	82	1	MOVIE	0	Comedy	Tambola	No	Yes	1
4341	93	1	MOVIE	0	Comedy	Why Him	No	Yes	2
7563	17	0	MOVIE	0	Action	Hanna	No	Yes	1
2404	2	0	MOVIE	0	Animation	The Mermaid Princess	No	Yes	1
17820	127	2	MOVIE	0	Animation	The Princess and the Frog	No	Yes	1
30912	1588	26	MOVIE	0	Action	The Hobbit: The Desolation Of maug	No	Yes	2
6421	84	1	MOVIE	0	Animation	Surf's Up : WaveMania	No	Yes	1
7828	2506	41	SERIES/EPISODES	13	Drama	Heroes	No	Yes	5
21204	4	0	MOVIE	0	Action	Parker	No	Yes	3
4606	2506	41	SERIES/EPISODES	3	Horror	The train	No	Yes	1
23103	7	0	MOVIE	0	Action	Robin Hood	No	Yes	4
18554	12	0	MOVIE	0	Action	War for the Planet of the Apes	No	Yes	3
22245	2928	48	SERIES/EPISODES	17	Drama	Ya Reit	No	Yes	2
27751	74	1	MOVIE	0	Comedy	Fist Fight	No	Yes	2
7155	3287	54	MOVIE	0	Drama	The Eagle	No	Yes	5
32626	89	1	MOVIE	0	Comedy	Snatched	No	Yes	1
27528	1325	22	SERIES/EPISODES	12	Animation	Littlest Pet hop  	No	Yes	1
8278	7	0	SERIES/EPISODES	18	Drama	Heroes	No	Yes	5
22449	57	0	MOVIE	0	Comedy	Bean	No	Yes	6
2711	20	0	MOVIE	0	Horror	The Possession Experiment	No	Yes	1
30687	47	0	MOVIE	0	Comedy	Snatched	No	Yes	1
22430	2335	38	MOVIE	0	Animation	Coco	No	Yes	2
3180	64	1	MOVIE	0	Animation	The Adventures of Petey and Friends	No	Yes	1
9216	783	13	SERIES/EPISODES	4	Horror	Bates Motel	No	Yes	1
33114	96	1	MOVIE	0	Action	Assassin's Creed	No	Yes	2
27280	58	0	MOVIE	0	Horror	Lights Out	No	Yes	1
29404	7	0	SERIES/EPISODES	9	Action	Blindspot	No	Yes	6
22899	19	0	MOVIE	0	Action	The Marine : Battleground	No	Yes	1
26466	59	0	MOVIE	0	Comedy	Baywatch	No	Yes	6
4118	64	1	MOVIE	0	Animation	The Adventures of Petey and Friends	No	Yes	1
31280	32	0	MOVIE	0	Animation	Tad the Lost Explorer	No	Yes	1
20819	75	1	MOVIE	0	Drama	Two Lovers and a Bear	No	Yes	1
11765	65	1	MOVIE	0	Animation	The Adventures of Petey and Friends	No	Yes	1
16659	90	1	MOVIE	0	Animation	The Boss Baby	No	Yes	10
16657	2056	34	SERIES/EPISODES	29	Drama	Caramel  	No	Yes	3
18941	611	10	SERIES/EPISODES	1	Animation	Bubble Guppies	No	Yes	1
160	195	3	SERIES/EPISODES	153	Animation	Nan and Lili	No	Yes	1
10154	1583	26	SERIES/EPISODES	5	Horror	Bates Motel	No	Yes	1
1569	79	1	MOVIE	0	Animation	Batman vs. Two Face	No	Yes	1
21288	93	1	MOVIE	0	Animation	Trolls	No	Yes	3
26651	16	0	SERIES/EPISODES	2	Animation	Toytoons	No	Yes	1
21084	5	0	MOVIE	0	Action	War for the Planet of the Apes	No	Yes	3
3241	64	1	MOVIE	0	Action	The Accountant	No	Yes	2
18066	15	0	MOVIE	0	Comedy	Going in tyle	No	Yes	3
13641	13	0	MOVIE	0	Biography	Marshall	No	Yes	1
15782	825	13	MOVIE	0	Animation	The Boss Baby	No	Yes	10
13437	7	0	MOVIE	0	Biography	Pele: Birth of a Legend	No	Yes	2
8074	10	0	MOVIE	0	Comedy	The Terminal	No	Yes	1
16514	36	0	MOVIE	0	Drama	The Dinner	No	Yes	1
9481	49	0	MOVIE	0	NOT_DEFINED_IN_UMS	Dunkirk	No	Yes	1
8543	11	0	MOVIE	0	Documentary	An Inconvenient equel: Truth to Power	No	Yes	2
25244	72	1	MOVIE	0	Horror	The Monster	No	Yes	2
24163	59	0	MOVIE	0	Comedy	Baywatch	No	Yes	6
24102	10	0	MOVIE	0	Comedy	Jennifer's Body	No	Yes	1
4543	1935	32	SERIES/EPISODES	3	Drama	Laqet Rohey	No	Yes	3
28262	12	0	MOVIE	0	Horror	Alien: Covenant	No	Yes	7
427	33	0	MOVIE	0	Drama	Aftermath	No	Yes	2
24775	14	0	MOVIE	0	Animation	Moana	No	Yes	8
19881	95	1	MOVIE	0	Drama	Unforgettable	No	Yes	3
16190	4	0	MOVIE	0	Comedy	Along Came Polly	No	Yes	2
32014	15	0	MOVIE	0	Comedy	Youm Maloosh Lazma	No	Yes	10
31341	743	12	SERIES/EPISODES	25	Animation	Marcus Level  	No	Yes	1
32422	72	1	MOVIE	0	Horror	Annabelle	No	Yes	3
29873	1065	17	SERIES/EPISODES	11	Animation	Wolverine and the X Men  	No	Yes	1
19412	6	0	MOVIE	0	Animation	Cinderella	No	Yes	1
19004	141	2	SERIES/EPISODES	1	Action	Six	No	Yes	2
10827	43	0	MOVIE	0	Drama	Three Billboards Outside Ebbing  Missouri	No	Yes	1
16129	83	1	MOVIE	0	Animation	Surf's Up : WaveMania	No	Yes	1
30281	27	0	MOVIE	0	Drama	Unforgettable	No	Yes	3
13029	1951	32	SERIES/EPISODES	4	Action	Teen Wolf	No	Yes	10
6055	98	1	MOVIE	0	Action	Spider-Man	No	Yes	1
14049	2	0	MOVIE	0	Biography	The Birth of a Nation	No	Yes	7
20207	92	1	MOVIE	0	Horror	The Devil's Candy	No	Yes	1
30750	95	1	SERIES/EPISODES	0	Action	Six	No	Yes	2
19147	12	0	SERIES/EPISODES	1	Drama	Britannia	No	Yes	1
9420	95	1	MOVIE	0	Drama	The hape of Water	No	Yes	3
17597	3	0	MOVIE	0	Drama	Passengers	No	Yes	2
8482	100	1	MOVIE	0	Biography	The Birth of a Nation	No	Yes	7
33299	72	1	MOVIE	0	Animation	Moana	No	Yes	8
11357	2690	44	SERIES/EPISODES	5	Action	Vikings  	No	Yes	4
15660	131	2	MOVIE	0	Horror	Rings	No	Yes	10
2446	89	1	MOVIE	0	Drama	100 treets	No	Yes	1
7197	44	0	MOVIE	0	Action	Pirates of the Caribbean: Dead Men Tell...	No	Yes	2
28466	3	0	MOVIE	0	Animation	The Adventures of Petey and Friends	No	Yes	1
32830	72	1	MOVIE	0	Animation	Moana	No	Yes	8
610	37	0	MOVIE	0	Comedy	Baywatch	No	Yes	6
30546	71	1	MOVIE	0	Action	Assassin's Creed	No	Yes	2
28588	53	0	MOVIE	0	Animation	Storks	No	Yes	1
23837	16	0	MOVIE	0	Animation	The Mermaid Princess	No	Yes	1
26325	1727	28	MOVIE	0	Comedy	Bad Boys	Yes	No	7
33768	37	0	MOVIE	0	NOT_DEFINED_IN_UMS	Dunkirk	No	Yes	1
10684	11	0	MOVIE	0	Animation	The Adventures of Petey and Friends	No	Yes	1
27732	86	1	MOVIE	0	Horror	Inside	No	Yes	4
11092	5839	97	MOVIE	0	Comedy	Bad Boys	No	Yes	7
28956	7002	116	MOVIE	0	Biography	The Founder	No	Yes	5
15578	66	1	MOVIE	0	Horror	Alien: Covenant	No	Yes	7
12255	414	6	MOVIE	0	Drama	Gladiator	No	Yes	5
31974	93	1	MOVIE	0	Animation	Trolls	No	Yes	3
29425	91	1	MOVIE	0	Animation	The Boss Baby	No	Yes	10
32218	88	1	MOVIE	0	Drama	Collateral Beauty	No	Yes	4
14987	75	1	MOVIE	0	Animation	The Mermaid Princess	No	Yes	1
5525	2	0	MOVIE	0	Action	Geostorm	No	Yes	3
15721	1324	22	SERIES/EPISODES	23	Animation	Sonic Underground	No	Yes	1
12724	75	1	MOVIE	0	Comedy	Friends with Benefits	No	Yes	3
17822	11	0	MOVIE	0	Comedy	Baywatch	No	Yes	6
29894	76	1	MOVIE	0	Animation	Batman vs. Two Face	No	Yes	1
6198	57	0	SERIES/EPISODES	23	Animation	Wolverine and the X Men  	No	Yes	1
13193	573	9	SERIES/EPISODES	26	Drama	Sadeeqat Al Omor  	No	Yes	6
24327	25	0	SERIES/EPISODES	4	Action	Agents of .H.I.E.L.D.	No	Yes	5
32443	26	0	MOVIE	0	Comedy	Their Finest	No	Yes	1
27242	17	0	MOVIE	0	Action	The Hunter's Prayer	No	Yes	1
1590	1051	17	SERIES/EPISODES	1	Comedy	Bou Droosh	No	Yes	1
2059	37	0	MOVIE	0	Animation	The Mermaid Princess	No	Yes	1
27997	27	0	MOVIE	0	Animation	Surf's Up : WaveMania	No	Yes	1
22247	91	1	MOVIE	0	Animation	The Boss Baby	No	Yes	10
30363	54	0	MOVIE	0	Animation	Batman: Gotham by Gaslight	No	Yes	1
33156	89	1	MOVIE	0	Animation	Captain Underpants: The First Epic Movie	No	Yes	1
33625	34	0	MOVIE	0	Comedy	Puerto Ricans in Paris	No	Yes	1
31301	58	0	MOVIE	0	Comedy	Baywatch	No	Yes	6
16680	81	1	MOVIE	0	Action	Jack Reacher: Never Go Back	No	Yes	2
6219	108	1	SERIES/EPISODES	1	Thriller	Penny Dreadful	No	Yes	1
14600	99	1	MOVIE	0	Action	King Arthur: Legend of the word	No	Yes	1
6015	82	1	MOVIE	0	Animation	Coco	No	Yes	2
23858	64	1	MOVIE	0	Animation	The Adventures of Petey and Friends	No	Yes	1
20371	748	12	MOVIE	0	Horror	The Void	No	Yes	1
14804	58	0	MOVIE	0	Animation	Storks	No	Yes	1
2976	8	0	MOVIE	0	Biography	Marshall	No	Yes	1
6688	22	0	MOVIE	0	Horror	Inside	No	Yes	4
23185	39	0	SERIES/EPISODES	1	Action	Teen Wolf	No	Yes	10
32912	8	0	MOVIE	0	Drama	Blade Runner	No	Yes	1
9706	1713	28	SERIES/EPISODES	14	Comedy	Friends	No	Yes	10
18903	36	0	MOVIE	0	Comedy	Baywatch	No	Yes	6
23429	1280	21	SERIES/EPISODES	1	Action	Top Gear	No	Yes	1
21309	75	1	MOVIE	0	Animation	The Mermaid Princess	No	Yes	1
11113	59	0	MOVIE	0	Comedy	Baywatch	No	Yes	6
15538	24	0	SERIES/EPISODES	12	Animation	Littlest Pet hop	No	Yes	1
10787	589	9	SERIES/EPISODES	8	Action	Justified	Yes	No	1
33055	83	1	MOVIE	0	Animation	Surf's Up : WaveMania	No	Yes	1
10909	21	0	MOVIE	0	Drama	The Fifth Estate	No	Yes	1
14131	59	0	MOVIE	0	Comedy	Baywatch	No	Yes	6
2997	1772	29	MOVIE	0	Comedy	E-Dounia Maqlouba	No	Yes	1
30506	113	1	MOVIE	0	Animation	Dragon Ball Z: Resurrection F	No	Yes	1
16354	746	12	SERIES/EPISODES	22	Animation	Marcus Level  	No	Yes	1
14396	93	1	MOVIE	0	Animation	Trolls	No	Yes	3
31566	92	1	MOVIE	0	Action	The Accountant	No	Yes	2
5220	58	0	MOVIE	0	Drama	Arrival	No	Yes	2
2671	4401	73	MOVIE	0	Animation	The pongeBob Movie: ponge Out of Water	No	Yes	1
12989	82	1	MOVIE	0	Animation	Tad the Lost Explorer	No	Yes	1
13458	45	0	MOVIE	0	Comedy	The Big Year	No	Yes	1
122	10	0	MOVIE	0	Comedy	Tambola	No	Yes	1
25408	16	0	MOVIE	0	Horror	The Void	No	Yes	1
23654	90	1	MOVIE	0	Biography	The Greatest howman	No	Yes	2
30975	40	0	MOVIE	0	Horror	Escape Room	No	Yes	2
7035	137	2	MOVIE	0	Animation	The Jetsons & WWE: Robo-WrestleMania!	No	Yes	1
20636	141	2	MOVIE	0	Action	Open Windows	No	Yes	1
17292	769	12	SERIES/EPISODES	3	Animation	Marcus Level  	No	Yes	1
4669	60	1	MOVIE	0	Comedy	What Happened Last Night	No	Yes	1
8707	90	1	MOVIE	0	Thriller	Broken Vows	No	Yes	2
15620	93	1	MOVIE	0	Animation	Ferdinand	No	Yes	3
11725	91	1	MOVIE	0	Animation	The Boss Baby	No	Yes	10
26754	23	0	MOVIE	0	Animation	The Adventures of Petey and Friends	No	Yes	1
591	99	1	MOVIE	0	Documentary	An Inconvenient equel: Truth to Power	No	Yes	2
20310	75	1	MOVIE	0	Animation	The Mermaid Princess	No	Yes	1
10053	90	1	MOVIE	0	Thriller	Broken Vows	No	Yes	2
25795	9	0	MOVIE	0	Drama	Finding Forrester	No	Yes	5
13071	32	0	MOVIE	0	Comedy	Youm Maloosh Lazma	No	Yes	10
21187	44	0	MOVIE	0	Animation	Ferdinand	No	Yes	3
22512	2081	34	SERIES/EPISODES	8	Drama	A-Sayeda Al Oula	No	Yes	2
9176	81	1	MOVIE	0	Animation	Cloudy With A Chance Of Meatballs	No	Yes	1
2141	14	0	MOVIE	0	Comedy	Fist Fight	No	Yes	2
21860	6014	100	MOVIE	0	Animation	The Boss Baby	No	Yes	10
4486	100	1	MOVIE	0	Documentary	An Inconvenient equel: Truth to Power	No	Yes	2
16293	13	0	MOVIE	0	Animation	Dragon Ball Z: Resurrection F	No	Yes	1
4955	88	1	MOVIE	0	Drama	Collateral Beauty	No	Yes	4
26815	2515	41	SERIES/EPISODES	27	Drama	Ya Reit	No	Yes	2
18638	169	2	SERIES/EPISODES	3	Action	Supergirl	No	Yes	4
7504	135	2	MOVIE	0	Action	The Maze Runner	No	Yes	1
1529	8	0	MOVIE	0	Comedy	Snatched	No	Yes	1
10726	81	1	MOVIE	0	NOT_DEFINED_IN_UMS	Dunkirk	No	Yes	1
10522	30	0	MOVIE	0	Drama	The Fifth Estate	Yes	No	1
24878	4	0	MOVIE	0	Documentary	An Inconvenient equel: Truth to Power	No	Yes	2
19311	4535	75	MOVIE	0	Animation	The Mermaid Princess	No	Yes	1
18230	15	0	MOVIE	0	Drama	Unfriended	No	Yes	1
21656	1515	25	MOVIE	0	Action	War for the Planet of the Apes	No	Yes	3
33259	115	1	MOVIE	0	Animation	Dragon Ball Z: Resurrection F	No	Yes	1
27284	91	1	MOVIE	0	Animation	The Boss Baby	No	Yes	10
16150	1387	23	SERIES/EPISODES	9	Animation	PAW Patrol	No	Yes	4
8177	1662	27	SERIES/EPISODES	13	Comedy	Kalam A-Nas	No	Yes	4
27896	74	1	MOVIE	0	Animation	Tom & Jerry: Willy Wonka and the Chocolate	No	Yes	1
32056	94	1	MOVIE	0	Animation	Trolls	No	Yes	3
33320	6	0	MOVIE	0	Thriller	Secret Window	No	Yes	2
31118	65	1	MOVIE	0	Animation	The Adventures of Petey and Friends	No	Yes	1
12337	6813	113	MOVIE	0	Action	Jack Reacher: Never Go Back	No	Yes	2
2610	59	0	SERIES/EPISODES	4	Animation	Pingu	No	Yes	1
6770	84	1	MOVIE	0	NOT_DEFINED_IN_UMS	Dunkirk	No	Yes	1
1203	17	0	MOVIE	0	Horror	Alien: Covenant	No	Yes	7
2467	2	0	MOVIE	0	Thriller	Broken Vows	No	Yes	2
8442	4	0	MOVIE	0	Animation	The Mermaid Princess	No	Yes	1
22594	10	0	MOVIE	0	Animation	The Adventures of Petey and Friends	No	Yes	1
2345	1209	20	SERIES/EPISODES	14	Comedy	Friends	Yes	No	10
16558	2	0	MOVIE	0	Animation	Return to Never Land	No	Yes	1
22064	11	0	MOVIE	0	Drama	Collateral Beauty	No	Yes	4
19780	6	0	MOVIE	0	Horror	Carrie	No	Yes	6
11460	5	0	MOVIE	0	Action	The Hunter's Prayer	No	Yes	1
15355	3	0	SERIES/EPISODES	1	Horror	American Horror tory	No	Yes	2
34197	79	1	MOVIE	0	Animation	Captain Underpants: The First Epic Movie	No	Yes	1
14213	8	0	MOVIE	0	Documentary	An Inconvenient equel: Truth to Power	No	Yes	2
8646	181	3	MOVIE	0	Thriller	Disturbia	Yes	No	1
29507	29	0	MOVIE	0	NOT_DEFINED_IN_UMS	Dunkirk	No	Yes	1
14539	1611	26	SERIES/EPISODES	3	Horror	The Walking Dead	No	Yes	10
14417	103	1	MOVIE	0	Animation	Dragon Ball Z: Resurrection F	No	Yes	1
23940	115	1	SERIES/EPISODES	1	Family	Taymour	No	Yes	1
34136	60	1	MOVIE	0	Comedy	Baywatch	No	Yes	6
26693	834	13	SERIES/EPISODES	29	Animation	Puppy In My Pocket  	No	Yes	1
10930	2040	34	MOVIE	0	Action	The Nice Guys	No	Yes	1
1407	617	10	SERIES/EPISODES	44	Animation	Fireman am	Yes	No	1
5363	74	1	MOVIE	0	Animation	The Mermaid Princess	No	Yes	1
5893	6	0	MOVIE	0	Comedy	A Dog's Purpose	No	Yes	2
30180	561	9	MOVIE	0	Drama	Unbroken	No	Yes	10
21126	30	0	MOVIE	0	Action	The Marine : Battleground	No	Yes	1
15090	59	0	MOVIE	0	Comedy	Baywatch	No	Yes	6
15559	97	1	MOVIE	0	Comedy	Diary of a Wimpy Kid: Dog Days	No	Yes	1
23206	43	0	MOVIE	0	Animation	Surf's Up	No	Yes	1
13010	57	0	MOVIE	0	Horror	The Void	No	Yes	1
1672	48	0	MOVIE	0	Animation	Cars	No	Yes	2
9054	82	1	MOVIE	0	Drama	The ense of an Ending	No	Yes	1
32729	95	1	MOVIE	0	Action	The Man with the Iron Heart	No	Yes	1
10257	74	1	MOVIE	0	Biography	Rebel in the Rye	No	Yes	1
29242	1944	32	SERIES/EPISODES	2	Drama	Ya Reit	No	Yes	2
12133	301	5	MOVIE	0	Drama	Collateral Beauty	No	Yes	4
3956	94	1	MOVIE	0	Animation	Trolls	No	Yes	3
32260	65	1	MOVIE	0	Animation	The Adventures of Petey and Friends	No	Yes	1
734	82	1	MOVIE	0	Animation	Tad the Lost Explorer	No	Yes	1
18434	4821	80	MOVIE	0	Thriller	Event	No	Yes	1
23675	5	0	MOVIE	0	Comedy	Baywatch	No	Yes	6
7443	87	1	MOVIE	0	Horror	Inside	No	Yes	4
25755	65	1	MOVIE	0	Animation	The Adventures of Petey and Friends	No	Yes	1
1264	86	1	MOVIE	0	Comedy	Going in tyle	No	Yes	3
7912	1327	22	SERIES/EPISODES	24	Animation	My Little Pony: Friendship Is Magic  	No	Yes	2
14621	101	1	MOVIE	0	Family	Beauty and the Beast	No	Yes	3
17170	8	0	MOVIE	0	Comedy	Daddy's Home	No	Yes	1
8585	91	1	MOVIE	0	Animation	The Boss Baby	No	Yes	10
22737	59	0	MOVIE	0	Comedy	Baywatch	No	Yes	6
14152	1040	17	SERIES/EPISODES	26	Animation	Slugterra	No	Yes	2
6505	80	1	MOVIE	0	Animation	Tad the Lost Explorer	No	Yes	1
19719	95	1	MOVIE	0	Action	Slow West	No	Yes	1
3018	115	1	MOVIE	0	Animation	Dragon Ball Z: Resurrection F	No	Yes	1
18169	12	0	MOVIE	0	Animation	The Adventures of Petey and Friends	No	Yes	1
31791	3	0	MOVIE	0	Animation	The Mermaid Princess	No	Yes	1
16028	69	1	MOVIE	0	Thriller	Inconceivable	No	Yes	3
2625	1380	23	SERIES/EPISODES	2	Animation	Dora The Explorer	No	Yes	1
26138	48	0	MOVIE	0	Action	Prince of Persia: The ands of Time	No	Yes	1
7946	26	0	MOVIE	0	Animation	Teddy Bear	No	Yes	1
7418	6	0	MOVIE	0	Comedy	Baywatch	No	Yes	6
19307	91	1	MOVIE	0	Animation	The Boss Baby	No	Yes	10
21305	16	0	MOVIE	0	Animation	The Boss Baby	No	Yes	10
15860	72	1	MOVIE	0	Animation	Howard Lovecraft and the Frozen Kingdom	No	Yes	1
20775	61	1	MOVIE	0	Biography	Radio	No	Yes	5
11374	72	1	MOVIE	0	Animation	Moana	No	Yes	8
6358	21	0	MOVIE	0	Action	Morning tar	No	Yes	1
11660	17	0	MOVIE	0	Animation	Moana	No	Yes	8
6215	73	1	MOVIE	0	Action	First Kill	No	Yes	1
9784	50	0	MOVIE	0	Comedy	A Dog's Purpose	No	Yes	2
1035	4917	81	MOVIE	0	Action	George of the Jungle	No	Yes	1
18287	9	0	MOVIE	0	Drama	Murder on the Orient Express	No	Yes	2
7805	79	1	MOVIE	0	NOT_DEFINED_IN_UMS	Dunkirk	No	Yes	1
33846	86	1	MOVIE	0	Comedy	Going in tyle	No	Yes	3
3012	35	0	MOVIE	0	Animation	The Boss Baby	No	Yes	10
11986	81	1	MOVIE	0	Action	Robot Overlords	No	Yes	1
30971	14	0	MOVIE	0	Thriller	Broken Vows	No	Yes	2
3115	6298	104	MOVIE	0	Animation	Coco	No	Yes	2
34050	54	0	MOVIE	0	Action	Geostorm	No	Yes	3
14535	81	1	MOVIE	0	Action	Instant Death	No	Yes	1
20142	145	2	SERIES/EPISODES	20	Drama	House	No	Yes	10
16880	84	1	MOVIE	0	Animation	Surf's Up : WaveMania	No	Yes	1
19694	2488	41	SERIES/EPISODES	3	Drama	Hell On Wheels	No	Yes	2
14657	26	0	MOVIE	0	Animation	The Boss Baby	No	Yes	10
28952	8	0	SERIES/EPISODES	2	Action	Vikings	No	Yes	7
25404	1684	28	SERIES/EPISODES	4	Drama	Doctorah Fi Al Hob	No	Yes	1
10905	1385	23	SERIES/EPISODES	23	Animation	PAW Patrol	No	Yes	4
14270	97	1	MOVIE	0	Action	London Heist	No	Yes	1
17696	91	1	MOVIE	0	Thriller	Broken Vows	No	Yes	2
24323	6	0	SERIES/EPISODES	2	Animation	PAW Patrol	No	Yes	4
13067	6	0	MOVIE	0	Animation	The Adventures of Petey and Friends	No	Yes	1
16245	78	1	MOVIE	0	Animation	The Little Vampire	No	Yes	1
15269	38	0	SERIES/EPISODES	10	Drama	Haqq Mayyet	No	Yes	1
7092	27	0	MOVIE	0	Action	The Marine : Battleground	No	Yes	1
3727	76	1	MOVIE	0	Animation	The Mermaid Princess	No	Yes	1
25873	30	0	MOVIE	0	Action	Monster Trucks	No	Yes	2
5378	79	1	SERIES/EPISODES	10	Action	Teen Wolf	No	Yes	10
1933	80	1	MOVIE	0	Animation	Lego cooby-Doo! Blowout Beach Bash	No	Yes	1
5010	6	0	MOVIE	0	Horror	Land Of The Dead	No	Yes	5
5073	4	0	MOVIE	0	Animation	Ferdinand	No	Yes	3
19164	8	0	MOVIE	0	Action	Spider-Man: Homecoming	No	Yes	2
33785	89	1	MOVIE	0	Animation	The Boss Baby	No	Yes	10
5174	72	1	SERIES/EPISODES	0	Action	Supergirl	No	Yes	4
24405	92	1	MOVIE	0	Action	Thor: Ragnarok	No	Yes	1
934	65	1	MOVIE	0	Action	War for the Planet of the Apes	No	Yes	3
23324	32	0	SERIES/EPISODES	1	Action	Top Gear	No	Yes	1
3094	92	1	MOVIE	0	Animation	Ferdinand	No	Yes	3
1912	98	1	MOVIE	0	Documentary	An Inconvenient equel: Truth to Power	No	Yes	2
3136	94	1	MOVIE	0	Drama	Unforgettable	No	Yes	3
8846	97	1	MOVIE	0	Biography	Marshall	No	Yes	1
2932	120	2	MOVIE	0	Animation	Ferdinand	No	Yes	3
730	1385	23	SERIES/EPISODES	23	Animation	PAW Patrol	No	Yes	4
3952	28	0	MOVIE	0	Comedy	Paul Blart: Mall Cop	No	Yes	1
30012	33	0	MOVIE	0	Comedy	Killing Gunther	No	Yes	1
3279	551	9	SERIES/EPISODES	1	Drama	Shades Of Blue	No	Yes	2
28319	121	2	MOVIE	0	Animation	The Adventures of Petey and Friends	No	Yes	1
25955	128	2	MOVIE	0	Animation	Flushed Away	No	Yes	1
9029	6	0	MOVIE	0	Animation	Batman: Gotham by Gaslight	No	Yes	1
9988	80	1	MOVIE	0	Action	Vigilante Diaries	No	Yes	1
7235	17	0	MOVIE	0	Biography	Ray	No	Yes	3
11027	16	0	MOVIE	0	Horror	Annabelle	No	Yes	3
21713	121	2	MOVIE	0	Comedy	The Hundred-Foot Journey	No	Yes	1
25465	78	1	MOVIE	0	Biography	Sully	No	Yes	6
17206	73	1	MOVIE	0	Horror	Alien: Covenant	No	Yes	7
23732	5784	96	MOVIE	0	Animation	Moana	No	Yes	8
10783	21	0	MOVIE	0	Animation	Trolls	No	Yes	3
21263	100	1	MOVIE	0	Horror	Rings	No	Yes	10
13189	2053	34	SERIES/EPISODES	7	Drama	The White Queen	No	Yes	1
21122	5457	90	MOVIE	0	Comedy	Bean	No	Yes	6
33602	59	0	MOVIE	0	Animation	Mulan	No	Yes	1
5094	2676	44	SERIES/EPISODES	1	Action	Zoo	No	Yes	3
10926	99	1	MOVIE	0	Biography	The Birth of a Nation	No	Yes	7
19387	9	0	MOVIE	0	Animation	The Adventures of Petey and Friends	No	Yes	1
5542	3	0	SERIES/EPISODES	0	Animation	Kung Fu Panda: Legends Of Awesomeness	No	Yes	1
18960	1279	21	SERIES/EPISODES	2	Animation	Littlest Pet hop	No	Yes	1
23875	93	1	MOVIE	0	Animation	Ferdinand	No	Yes	3
20081	2473	41	SERIES/EPISODES	3	Thriller	Hannibal	No	Yes	3
19143	2476	41	SERIES/EPISODES	2	Horror	The Walking Dead	No	Yes	10
17431	582	9	SERIES/EPISODES	2	Horror	The train	No	Yes	1
8703	84	1	MOVIE	0	Horror	Nightmare On Elm treet	No	Yes	1
8417	96	1	MOVIE	0	Action	Assassin's Creed	No	Yes	2
29911	144	2	MOVIE	0	Drama	100 treets	No	Yes	1
30849	6312	105	SERIES/EPISODES	14	Drama	Madrasat Al Hob	No	Yes	3
31379	45	0	MOVIE	0	Animation	Surf's Up : WaveMania	No	Yes	1
30319	1357	22	SERIES/EPISODES	7	Comedy	The Thundermans	No	Yes	1
24548	102	1	MOVIE	0	Action	Assassin's Creed	No	Yes	2
2177	95	1	MOVIE	0	Horror	The Windmill Massacre	No	Yes	1
31053	7	0	MOVIE	0	Action	The corpion King : Rise Of A Warrior	No	Yes	3
4808	24	0	MOVIE	0	Horror	The Neighbor	No	Yes	1
14291	42	0	MOVIE	0	Animation	The Boss Baby	No	Yes	10
19858	74	1	MOVIE	0	Animation	The Mermaid Princess	No	Yes	1
8520	9	0	SERIES/EPISODES	0	Action	The Flash	No	Yes	5
29074	92	1	MOVIE	0	Animation	Ferdinand	No	Yes	3
23772	1349	22	SERIES/EPISODES	3	Animation	Kung Fu Panda: Legends Of Awesomeness	No	Yes	1
200	516	8	MOVIE	0	Animation	Tom And Jerry: anta's Little Helpers	No	Yes	1
3218	71	1	MOVIE	0	Comedy	Old chool	No	Yes	1
17227	53	0	MOVIE	0	Horror	Underground	No	Yes	1
14760	52	0	MOVIE	0	Animation	The Boss Baby	No	Yes	10
7786	3	0	MOVIE	0	Animation	Ferdinand	No	Yes	3
22672	67	1	MOVIE	0	Animation	Heavenly word	No	Yes	1
25221	55	0	MOVIE	0	Drama	100 treets	No	Yes	1
19919	88	1	MOVIE	0	Animation	Emoji Movie	No	Yes	1
26750	8	0	SERIES/EPISODES	20	Drama	24	No	Yes	6
20184	1014	16	SERIES/EPISODES	18	Animation	Dora the Explorer	No	Yes	3
10253	6742	112	MOVIE	0	Action	Along Came A pider	No	Yes	1
2015	4949	82	SERIES/EPISODES	10	Action	Blindspot	No	Yes	6
3157	2	0	SERIES/EPISODES	43	Animation	Numberjacks	No	Yes	1
6440	13	0	SERIES/EPISODES	2	Animation	Marcus Level  	No	Yes	1
21061	75	1	MOVIE	0	Biography	Rebel in the Rye	No	Yes	1
9559	332	5	MOVIE	0	Drama	Maggie	No	Yes	1
31236	93	1	MOVIE	0	Animation	Trolls	No	Yes	3
18613	16	0	SERIES/EPISODES	0	Animation	PAW Patrol	No	Yes	4
32746	53	0	MOVIE	0	Animation	Storks	No	Yes	1
16899	10	0	MOVIE	0	Action	Seventh on	No	Yes	2
12272	5	0	MOVIE	0	Drama	My Cousin Rachel	No	Yes	1
32725	13	0	MOVIE	0	Comedy	My Old Lady	No	Yes	1
13801	10	0	MOVIE	0	Drama	Everything Will Be Fine	No	Yes	2
20653	53	0	MOVIE	0	Comedy	Youm Maloosh Lazma	No	Yes	10
19347	1195	19	SERIES/EPISODES	3	Drama	24	No	Yes	6
4564	41	0	MOVIE	0	Drama	The Messenger	No	Yes	1
9601	21	0	MOVIE	0	Horror	Paranormal Activity	No	Yes	1
22203	90	1	MOVIE	0	Thriller	Broken Vows	No	Yes	2
30176	9	0	MOVIE	0	Thriller	Intruders	No	Yes	6
30645	73	1	MOVIE	0	Biography	Rebel in the Rye	No	Yes	1
6091	93	1	MOVIE	0	Animation	Trolls	No	Yes	3
32685	54	0	MOVIE	0	Thriller	Drive Angry	No	Yes	10
21530	100	1	MOVIE	0	Drama	Please tand By	No	Yes	1
24670	5	0	MOVIE	0	Thriller	Broken Vows	No	Yes	2
14005	20	0	MOVIE	0	Animation	Storks	No	Yes	1
28096	109	1	MOVIE	0	Action	Jumanji	No	Yes	2
11456	83	1	MOVIE	0	Thriller	Gutshot traight	No	Yes	1
30462	68	1	MOVIE	0	Animation	Coco	No	Yes	2
13923	5132	85	MOVIE	0	Comedy	Baywatch	No	Yes	6
3096	203	3	MOVIE	0	Animation	The Nut Job : Nutty by Nature	No	Yes	1
17124	94	1	MOVIE	0	Animation	Trolls	No	Yes	3
17717	17	0	MOVIE	0	Animation	Surf's Up : WaveMania	No	Yes	1
19185	6	0	MOVIE	0	Action	Morning tar	No	Yes	1
15433	4	0	MOVIE	0	Animation	Trolls	No	Yes	3
25017	3	0	MOVIE	0	Animation	The Boss Baby	No	Yes	10
18920	1012	16	MOVIE	0	Action	Machete	No	Yes	1
34071	43	0	SERIES/EPISODES	34	Animation	Marcus Level  	No	Yes	1
18981	27	0	MOVIE	0	Biography	Rebel in the Rye	No	Yes	1
23425	30	0	MOVIE	0	Animation	Cloudy With a Chance of Meatballs	No	Yes	3
4503	18	0	MOVIE	0	Comedy	Baywatch	No	Yes	6
17656	108	1	SERIES/EPISODES	1	Action	Zoo	No	Yes	3
28912	22	0	MOVIE	0	Comedy	Youm Maloosh Lazma	No	Yes	10
1975	2559	42	SERIES/EPISODES	3	Drama	House	No	Yes	10
1260	10	0	MOVIE	0	Horror	The Monster	No	Yes	2
28157	40	0	MOVIE	0	Action	Atomic Blonde	No	Yes	1
31909	78	1	MOVIE	0	Animation	Dragon Ball Z: Resurrection F	No	Yes	1
1403	29	0	SERIES/EPISODES	1	Drama	Madrasat Al Hob	No	Yes	3
3178	87	1	MOVIE	0	Action	The Mask Of Zorro	No	Yes	1
13170	4	0	SERIES/EPISODES	0	Comedy	Friends	No	Yes	10
29625	1271	21	SERIES/EPISODES	2	Animation	Slugterra	No	Yes	2
19450	81	1	MOVIE	0	Drama	Unfriended	No	Yes	1
14373	20	0	MOVIE	0	Action	War for the Planet of the Apes	No	Yes	3
20428	95	1	MOVIE	0	Animation	ParaNorman	No	Yes	2
3239	95	1	MOVIE	0	Animation	Smurfs: The Lost Village	No	Yes	1
5115	87	1	MOVIE	0	Comedy	Going in tyle	No	Yes	3
26649	82	1	MOVIE	0	Animation	Tad the Lost Explorer	No	Yes	1
5788	91	1	MOVIE	0	Animation	The Boss Baby	No	Yes	10
11090	1384	23	SERIES/EPISODES	15	Animation	PAW Patrol	No	Yes	4
26241	5299	88	MOVIE	0	Action	The Expendables	Yes	No	8
8459	1715	28	SERIES/EPISODES	4	Animation	In the Night Garden	No	Yes	10
26384	38	0	SERIES/EPISODES	11	Horror	The Walking Dead	Yes	No	10
11559	90	1	MOVIE	0	Animation	Moana	No	Yes	8
13843	96	1	MOVIE	0	Thriller	Out Of Time	No	Yes	2
27587	1151	19	SERIES/EPISODES	11	Comedy	Kalam A-Nas	No	Yes	4
29789	10	0	MOVIE	0	Animation	Emoji Movie	No	Yes	1
5054	348	5	SERIES/EPISODES	1	Drama	Power	No	Yes	1
18777	115	1	MOVIE	0	Animation	Dragon Ball Z: Resurrection F	No	Yes	1
24569	8	0	MOVIE	0	Drama	The Exception	No	Yes	1
17982	36	0	MOVIE	0	Animation	Tom and Jerry: The Lost Dragon	No	Yes	1
21877	46	0	MOVIE	0	Drama	Unfriended	No	Yes	1
8236	9	0	MOVIE	0	Comedy	Why Him	No	Yes	2
27400	74	1	MOVIE	0	Animation	The Mermaid Princess	No	Yes	1
13639	58	0	MOVIE	0	Comedy	Baywatch	No	Yes	6
25711	20	0	MOVIE	0	Comedy	The chool of Rock	Yes	No	1
16922	94	1	MOVIE	0	Animation	The Boss Baby	No	Yes	10
25976	11	0	MOVIE	0	Drama	Fences	No	Yes	2
11273	35	0	MOVIE	0	Animation	The Boss Baby	No	Yes	10
33583	92	1	MOVIE	0	Animation	The Boss Baby	No	Yes	10
23427	43	0	SERIES/EPISODES	0	Animation	PAW Patrol	No	Yes	4
10335	98	1	MOVIE	0	Documentary	An Inconvenient equel: Truth to Power	No	Yes	2
15740	32	0	MOVIE	0	Animation	Ghost In The hell: Laughing Man	No	Yes	1
8173	2411	40	SERIES/EPISODES	11	Horror	The Walking Dead	No	Yes	10
5828	65	1	MOVIE	0	Animation	The Adventures of Petey and Friends	No	Yes	1
3933	24	0	MOVIE	0	Animation	The Boss Baby	No	Yes	10
16779	77	1	MOVIE	0	Animation	Trolls	No	Yes	3
8358	87	1	MOVIE	0	Drama	Collateral Beauty	No	Yes	4
15168	12	0	MOVIE	0	Biography	Sully	No	Yes	6
2322	1243	20	SERIES/EPISODES	13	Comedy	Friends	No	Yes	10
13292	46	0	MOVIE	0	Thriller	Twelve Monkeys	No	Yes	6
25732	79	1	MOVIE	0	Action	Sleight	No	Yes	1
29953	139	2	MOVIE	0	Animation	Madagascar	No	Yes	1
10865	1524	25	SERIES/EPISODES	6	Animation	Dinofroz  	No	Yes	2
26201	2	0	MOVIE	0	Drama	The hape of Water	No	Yes	3
179	2	0	MOVIE	0	Horror	Horns	No	Yes	9
16005	116	1	MOVIE	0	Animation	Frozen	No	Yes	1
32033	38	0	MOVIE	0	Animation	Coco	No	Yes	2
12783	2011	33	MOVIE	0	Action	George of the Jungle	No	Yes	1
13456	16	0	MOVIE	0	Animation	The Mermaid Princess	No	Yes	1
33848	228	3	SERIES/EPISODES	1	Action	Blindspot	Yes	No	6
24121	83	1	MOVIE	0	Animation	Tad the Lost Explorer	No	Yes	1
10438	6	0	MOVIE	0	Animation	The Adventures of Petey and Friends	No	Yes	1
2505	24	0	MOVIE	0	Animation	Trolls	No	Yes	3
31890	71	1	MOVIE	0	Animation	Puss in Boots	No	Yes	1
28077	89	1	MOVIE	0	Comedy	Snatched	No	Yes	1
23652	59	0	MOVIE	0	Action	Instant Death	No	Yes	1
10234	2446	40	SERIES/EPISODES	12	Drama	Unforgettable	No	Yes	3
25589	1305	21	SERIES/EPISODES	7	Animation	My Little Pony: Friendship Is Magic  	No	Yes	2
22428	91	1	MOVIE	0	Animation	The Boss Baby	No	Yes	10
3056	17	0	MOVIE	0	Biography	Rebel in the Rye	No	Yes	1
31339	92	1	MOVIE	0	Animation	The Boss Baby	No	Yes	10
15576	26	0	SERIES/EPISODES	0	Drama	Twin Peaks	No	Yes	1
31135	2558	42	SERIES/EPISODES	6	Action	Vikings  	No	Yes	4
24590	51	0	MOVIE	0	Comedy	A Dog's Purpose	No	Yes	2
31217	99	1	MOVIE	0	Horror	Rings	No	Yes	10
14066	91	1	MOVIE	0	Action	The Accountant	No	Yes	2
5544	36	0	MOVIE	0	Horror	Inside	No	Yes	4
26548	14	0	MOVIE	0	Biography	The Founder	No	Yes	5
12396	142	2	MOVIE	0	Action	Transformers: Dark of the Moon	No	Yes	1
15719	72	1	MOVIE	0	Animation	Moana	No	Yes	8
2383	101	1	MOVIE	0	Animation	Moana	No	Yes	8
1262	8	0	MOVIE	0	Biography	Churchill	No	Yes	2
25793	61	1	MOVIE	0	Horror	Phoenix Forgotten	No	Yes	1
31625	59	0	MOVIE	0	Animation	The Mermaid Princess	No	Yes	1
4341	99	1	MOVIE	0	Biography	The Birth of a Nation	No	Yes	7
20613	22	0	SERIES/EPISODES	12	Animation	My Little Pony: Friendship Is Magic	No	Yes	1
7563	23	0	MOVIE	0	Comedy	This Is Where I Leave You	No	Yes	1
2404	26	0	MOVIE	0	Animation	The Mermaid Princess	No	Yes	1
17820	75	1	MOVIE	0	Animation	Cloudy With a Chance of Meatballs	No	Yes	3
30912	372	6	MOVIE	0	Thriller	Saw	No	Yes	2
6421	81	1	MOVIE	0	Animation	Moana	No	Yes	8
21204	38	0	MOVIE	0	Action	Elephant White	No	Yes	1
4606	16	0	SERIES/EPISODES	5	Animation	Blaze And The Monster Machines	No	Yes	4
23103	2	0	SERIES/EPISODES	5	Action	Six	No	Yes	2
18554	22	0	MOVIE	0	Drama	Collateral Beauty	No	Yes	4
22245	2684	44	SERIES/EPISODES	8	Drama	Ya Reit	No	Yes	2
27751	33	0	MOVIE	0	Drama	Goat	No	Yes	1
7155	5674	94	MOVIE	0	Thriller	Angels and Demons	No	Yes	1
32626	7	0	MOVIE	0	Comedy	Snatched	No	Yes	1
27528	1204	20	SERIES/EPISODES	4	Comedy	Friends	No	Yes	10
33095	20	0	MOVIE	0	Action	The Expendables	No	Yes	8
8278	5	0	SERIES/EPISODES	16	Drama	Heroes	No	Yes	5
22449	57	0	MOVIE	0	Comedy	Bean	No	Yes	6
2711	81	1	MOVIE	0	NOT_DEFINED_IN_UMS	Dunkirk	No	Yes	1
30687	43	0	MOVIE	0	Biography	Rebel in the Rye	No	Yes	1
22430	16	0	MOVIE	0	Animation	Coco	No	Yes	2
3180	16	0	MOVIE	0	Animation	The Adventures of Petey and Friends	No	Yes	1
9216	2503	41	SERIES/EPISODES	9	Horror	Bates Motel	No	Yes	1
33114	93	1	MOVIE	0	Animation	Trolls	No	Yes	3
29404	6285	104	SERIES/EPISODES	6	Action	Blindspot	No	Yes	6
28935	68	1	MOVIE	0	Comedy	Shallow Hal	No	Yes	1
9685	51144	852	MOVIE	0	Action	Jack Reacher: Never Go Back	No	Yes	2
26466	43	0	MOVIE	0	Drama	Collateral Beauty	No	Yes	4
4118	64	1	MOVIE	0	Animation	The Adventures of Petey and Friends	No	Yes	1
20819	21	0	MOVIE	0	Family	Max : White House Hero	No	Yes	1
2507	70	1	MOVIE	0	Action	xXx: Return of Xander Cage	No	Yes	2
16659	90	1	MOVIE	0	Animation	The Boss Baby	No	Yes	10
16657	1382	23	SERIES/EPISODES	9	Animation	Dora the Explorer	No	Yes	3
18941	4428	73	MOVIE	0	Animation	Surf's Up	No	Yes	1
160	1511	25	SERIES/EPISODES	2	Animation	Dinofroz  	No	Yes	2
10154	3873	64	SERIES/EPISODES	2	Documentary	Ultimate Airport Dubai	No	Yes	10
1569	100	1	MOVIE	0	Comedy	Bean	No	Yes	6
21288	94	1	MOVIE	0	Animation	Trolls	No	Yes	3
26651	1327	22	SERIES/EPISODES	6	Animation	My Little Pony: Friendship Is Magic  	No	Yes	2
30342	9	0	MOVIE	0	Horror	Inside	No	Yes	4
21084	27	0	MOVIE	0	Horror	Inside	No	Yes	4
3241	91	1	MOVIE	0	Animation	The Boss Baby	No	Yes	10
18066	133	2	MOVIE	0	Biography	Open Water	No	Yes	1
13641	34	0	MOVIE	0	Biography	Marshall	No	Yes	1
15782	447	7	MOVIE	0	Animation	The Boss Baby	No	Yes	10
13437	4	0	MOVIE	0	Animation	The Croods	No	Yes	1
8074	9	0	MOVIE	0	Animation	Trolls	No	Yes	3
9481	42	0	MOVIE	0	Drama	Unforgettable	No	Yes	3
8543	12	0	MOVIE	0	Action	American niper	No	Yes	1
25244	25	0	MOVIE	0	Action	The Accountant	No	Yes	2
24163	3	0	SERIES/EPISODES	0	Animation	Kung Fu Panda: Legends Of Awesomeness	No	Yes	1
24102	87	1	MOVIE	0	Animation	Scooby Doo! haggy's howdown	No	Yes	1
4543	11	0	MOVIE	0	Animation	Dragon Ball Z: Resurrection F	No	Yes	1
6463	320	5	SERIES/EPISODES	7	Animation	Borj Al Oloum	No	Yes	1
28262	9	0	MOVIE	0	Animation	The Mermaid Princess	No	Yes	1
427	22	0	MOVIE	0	Comedy	Tambola	No	Yes	1
24775	18	0	MOVIE	0	Horror	The Void	No	Yes	1
19881	25	0	MOVIE	0	Thriller	Broken Vows	No	Yes	2
16190	15	0	MOVIE	0	Thriller	Saw	No	Yes	2
32014	14	0	MOVIE	0	Action	The Accountant	No	Yes	2
31341	2691	44	SERIES/EPISODES	8	Action	Vikings	No	Yes	7
32422	87	1	MOVIE	0	Horror	Shutter	No	Yes	1
29873	6	0	SERIES/EPISODES	1	Drama	Heroes Reborn	No	Yes	1
19412	10	0	MOVIE	0	Action	Kingsman: The Golden Circle	No	Yes	1
19004	96	1	MOVIE	0	Action	King Arthur: Legend of the word	No	Yes	1
10827	6	0	MOVIE	0	Action	Kidnap	No	Yes	2
16129	5	0	MOVIE	0	Animation	Moana	No	Yes	8
24897	22	0	MOVIE	0	Comedy	Baywatch	No	Yes	6
30281	5	0	MOVIE	0	Comedy	Baywatch	No	Yes	6
13029	2506	41	SERIES/EPISODES	10	Action	Vikings	No	Yes	7
6055	100	1	MOVIE	0	Animation	The Jetsons & WWE: Robo-WrestleMania!	No	Yes	1
14049	99	1	MOVIE	0	Biography	The Birth of a Nation	No	Yes	7
26712	102	1	MOVIE	0	Horror	You're Next	No	Yes	3
30750	2444	40	SERIES/EPISODES	5	Action	American Odyssey	No	Yes	1
19147	25	0	SERIES/EPISODES	1	Drama	Madrasat Al Hob	No	Yes	3
9420	80	1	MOVIE	0	Action	Geostorm	No	Yes	3
25652	41	0	MOVIE	0	Animation	Snow White and the even Dwarfs	No	Yes	1
33299	73	1	MOVIE	0	Animation	Moana	No	Yes	8
19616	3466	57	SERIES/EPISODES	2	Drama	Power	Yes	No	1
11357	1235	20	SERIES/EPISODES	26	Drama	Bayn Al Kanayen  	No	Yes	1
15660	213	3	MOVIE	0	Animation	The Boss Baby	No	Yes	10
2446	99	1	MOVIE	0	Horror	Rings	No	Yes	10
4322	80	1	MOVIE	0	Action	Kingsman: The Golden Circle	Yes	No	1
26508	8	0	MOVIE	0	Animation	The Adventures of Petey and Friends	No	Yes	1
32830	6	0	MOVIE	0	Drama	Collateral Beauty	No	Yes	4
6646	54	0	MOVIE	0	Comedy	Snatched	No	Yes	1
30546	28	0	MOVIE	0	Action	The Accountant	No	Yes	2
28588	70	1	MOVIE	0	Action	The Amazing pider-Man	No	Yes	10
9073	86	1	MOVIE	0	Horror	Rings	No	Yes	10
26325	3397	56	SERIES/EPISODES	17	Drama	24	Yes	No	6
33768	52	0	MOVIE	0	NOT_DEFINED_IN_UMS	Dunkirk	No	Yes	1
27732	62	1	MOVIE	0	Thriller	#FollowFriday	No	Yes	1
11092	5327	88	MOVIE	0	Documentary	Ronaldo	No	Yes	10
25938	1218	20	SERIES/EPISODES	21	Drama	Laqet Rohey	No	Yes	3
28956	5179	86	MOVIE	0	Action	Maze Runner: The Death Cure	No	Yes	1
22226	5	0	MOVIE	0	Animation	The Nut Job : Nutty by Nature	No	Yes	1
15578	91	1	MOVIE	0	Animation	The Boss Baby	No	Yes	10
14110	12	0	MOVIE	0	Biography	Churchill	No	Yes	2
31974	72	1	MOVIE	0	Animation	Moana	No	Yes	8
29425	101	1	MOVIE	0	Biography	The Birth of a Nation	No	Yes	7
32218	87	1	MOVIE	0	Horror	Inside	No	Yes	4
14987	5464	91	MOVIE	0	Animation	The murfs	No	Yes	6
5525	2	0	MOVIE	0	Horror	Land Of The Dead	No	Yes	5
15721	1353	22	SERIES/EPISODES	3	Animation	Teenage Mutant Ninja Turtles	No	Yes	2
12724	85	1	MOVIE	0	Drama	The Girl on the Train	No	Yes	3
17822	4	0	MOVIE	0	Animation	Ferdinand	No	Yes	3
29894	110	1	MOVIE	0	Horror	Rings	No	Yes	10
6198	2569	42	SERIES/EPISODES	1	Drama	Lel Hob Jenon	No	Yes	1
13193	46	0	MOVIE	0	Animation	Moana	No	Yes	8
24327	60	1	MOVIE	0	Action	Morning tar	No	Yes	1
32443	84	1	MOVIE	0	Drama	The ense of an Ending	No	Yes	1
1590	2977	49	MOVIE	0	Thriller	Saw	No	Yes	2
2059	6	0	MOVIE	0	Animation	Surf's Up : WaveMania	No	Yes	1
16108	63	1	MOVIE	0	Action	Kingsman: The Golden Circle	No	Yes	1
22247	89	1	MOVIE	0	Drama	Collateral Beauty	No	Yes	4
30363	81	1	MOVIE	0	Action	Geostorm	No	Yes	3
33156	75	1	MOVIE	0	Animation	Tom & Jerry: Willy Wonka and the Chocolate	No	Yes	1
22716	96	1	MOVIE	0	Drama	Zodiac	No	Yes	1
13662	87	1	MOVIE	0	Comedy	Going in tyle	No	Yes	3
33625	21	0	SERIES/EPISODES	1	Drama	Taboo	No	Yes	1
31301	5	0	MOVIE	0	Comedy	Baywatch	No	Yes	6
16680	6978	116	MOVIE	0	Animation	The Mermaid Princess	No	Yes	1
6219	8	0	SERIES/EPISODES	2	Comedy	Friends	No	Yes	10
14600	8	0	MOVIE	0	Action	Robin Hood	No	Yes	4
6015	80	1	MOVIE	0	Animation	Coco	No	Yes	2
15273	74	1	MOVIE	0	Drama	Despite the Falling now	No	Yes	1
4139	11	0	MOVIE	0	Comedy	Paris Can Wait	No	Yes	1
23858	64	1	MOVIE	0	Animation	The Adventures of Petey and Friends	No	Yes	1
20371	50	0	MOVIE	0	Horror	Annabelle	No	Yes	3
14804	62	1	MOVIE	0	Animation	Storks	No	Yes	1
2976	13	0	MOVIE	0	Comedy	The haggy Dog	No	Yes	1
6688	89	1	MOVIE	0	Comedy	Snatched	No	Yes	1
23185	116	1	MOVIE	0	Comedy	Fist Fight	No	Yes	2
32912	18	0	MOVIE	0	Horror	Friday The th	No	Yes	1
9706	87	1	SERIES/EPISODES	3	Comedy	Friends	No	Yes	10
23429	4602	76	MOVIE	0	Action	Underworld: Awakening	No	Yes	1
21309	88	1	MOVIE	0	Drama	100 treets	No	Yes	1
11113	97	1	MOVIE	0	Comedy	Table	No	Yes	1
2202	34387	573	SERIES/EPISODES	15	Drama	24	Yes	No	6
15538	1318	21	SERIES/EPISODES	14	Animation	Blaze And The Monster Machines	No	Yes	4
10787	5	0	SERIES/EPISODES	4	Comedy	House of Lies	Yes	No	1
33055	78	1	MOVIE	0	Biography	Sully	No	Yes	6
10909	62	1	SERIES/EPISODES	1	Action	Vikings	No	Yes	7
17149	12	0	MOVIE	0	Documentary	Russia's Wild Arctic	No	Yes	2
30506	19	0	MOVIE	0	Animation	The Mermaid Princess	No	Yes	1
16354	27	0	MOVIE	0	Drama	Zero Dark Thirty	No	Yes	2
31566	13	0	MOVIE	0	Drama	Billy Lynn’s Long Halftime Walk	No	Yes	1
5220	69	1	MOVIE	0	Biography	The Founder	No	Yes	5
2671	29	0	MOVIE	0	Drama	Everything  Everything	No	Yes	1
19963	79	1	MOVIE	0	Comedy	Tambola	No	Yes	1
12989	66	1	MOVIE	0	Horror	Inside	No	Yes	4
13458	280	4	MOVIE	0	Comedy	Alexander and the Terrible  Horrible  No G	No	Yes	1
122	17	0	MOVIE	0	Thriller	Broken Vows	No	Yes	2
23654	12	0	MOVIE	0	Horror	Inside	No	Yes	4
30975	8	0	MOVIE	0	Action	xXx: Return of Xander Cage	No	Yes	2
7035	75	1	MOVIE	0	Animation	The Mermaid Princess	No	Yes	1
20636	100	1	MOVIE	0	Comedy	Due Date	No	Yes	1
17292	2452	40	SERIES/EPISODES	7	Action	Teen Wolf	No	Yes	10
4669	64	1	MOVIE	0	Thriller	Finders Keepers	No	Yes	1
8707	91	1	MOVIE	0	Action	The Accountant	No	Yes	2
15620	85	1	MOVIE	0	Biography	The Greatest howman	No	Yes	2
11725	59	0	MOVIE	0	Comedy	Baywatch	No	Yes	6
26754	33	0	MOVIE	0	Animation	The Mermaid Princess	No	Yes	1
4404	10	0	MOVIE	0	Comedy	Baywatch	No	Yes	6
1182	72	1	MOVIE	0	Animation	Moana	No	Yes	8
20310	96	1	MOVIE	0	Comedy	Table	No	Yes	1
10053	95	1	MOVIE	0	Action	Assassin's Creed	No	Yes	2
25795	1262	21	MOVIE	0	Animation	Tom And Jerry: anta's Little Helpers	No	Yes	1
13071	71	1	MOVIE	0	Drama	The hape of Water	No	Yes	3
21187	5	0	MOVIE	0	Animation	The Boss Baby	No	Yes	10
22512	2	0	MOVIE	0	Action	Robin Hood	No	Yes	4
9176	51	0	MOVIE	0	Action	John Wick: Chapter	No	Yes	2
21860	37	0	MOVIE	0	Animation	Snow White's New Adventure	No	Yes	1
16293	19	0	MOVIE	0	Animation	Captain Underpants: The First Epic Movie	No	Yes	1
4955	110	1	MOVIE	0	Drama	The Girl on the Train	No	Yes	3
26815	4	0	MOVIE	0	Drama	Hyde Park On Hudson	No	Yes	1
18638	1704	28	SERIES/EPISODES	9	Action	Supergirl	No	Yes	4
7504	78	1	MOVIE	0	Drama	The Messenger	No	Yes	1
1529	16	0	MOVIE	0	Action	Baby Driver	No	Yes	2
10726	80	1	MOVIE	0	NOT_DEFINED_IN_UMS	Dunkirk	No	Yes	1
10522	104	1	MOVIE	0	Drama	Unbroken	Yes	No	10
24878	11	0	MOVIE	0	Animation	Tad the Lost Explorer	No	Yes	1
2406	61	1	MOVIE	0	Action	Transformers: Age of Extinction	No	Yes	1
21656	8	0	MOVIE	0	Action	War for the Planet of the Apes	No	Yes	3
33259	23	0	MOVIE	0	Animation	Dragon Ball Z: Resurrection F	No	Yes	1
27284	72	1	MOVIE	0	Animation	Moana	No	Yes	8
16150	1379	22	SERIES/EPISODES	4	Animation	Dora And Friends: Into The City	No	Yes	2
8177	1785	29	SERIES/EPISODES	2	Comedy	Kalam A-Nas	No	Yes	4
13744	90	1	MOVIE	0	Horror	Alien: Covenant	No	Yes	7
27896	71	1	MOVIE	0	Animation	The Jetsons & WWE: Robo-WrestleMania!	No	Yes	1
32056	106	1	MOVIE	0	Animation	The Jetsons & WWE: Robo-WrestleMania!	No	Yes	1
33320	11	0	MOVIE	0	Animation	Avengers Confidential: Black Widow	No	Yes	1
31118	91	1	MOVIE	0	Animation	The Boss Baby	No	Yes	10
12337	2323	38	MOVIE	0	Drama	Billy Lynn’s Long Halftime Walk	No	Yes	1
2610	820	13	SERIES/EPISODES	8	Animation	Numberjacks	No	Yes	1
6770	18	0	SERIES/EPISODES	0	Animation	Kung Fu Panda: Legends Of Awesomeness	No	Yes	1
2467	53	0	MOVIE	0	Animation	The Boss Baby	No	Yes	10
8442	31	0	MOVIE	0	Comedy	Why Him	No	Yes	2
22594	4	0	MOVIE	0	Animation	The Nut Job : Nutty by Nature	No	Yes	1
2345	158	2	SERIES/EPISODES	14	Comedy	Friends	Yes	No	10
16558	12	0	MOVIE	0	Animation	Surf's Up : WaveMania	No	Yes	1
22064	4	0	MOVIE	0	Animation	The Mermaid Princess	No	Yes	1
22655	75	1	MOVIE	0	Action	The Accountant	No	Yes	2
11460	14	0	MOVIE	0	Action	The Hunter's Prayer	No	Yes	1
15355	88	1	MOVIE	0	Horror	Inside	No	Yes	4
14213	98	1	MOVIE	0	Documentary	An Inconvenient equel: Truth to Power	No	Yes	2
8646	41615	693	MOVIE	0	Drama	Murder on the Orient Express	Yes	No	2
29507	10	0	MOVIE	0	Drama	Collateral Beauty	No	Yes	4
14539	694	11	SERIES/EPISODES	14	Animation	PAW Patrol	No	Yes	4
14417	75	1	MOVIE	0	Animation	Batman vs. Two Face	No	Yes	1
23940	105	1	SERIES/EPISODES	1	Comedy	Melissa & Joey	No	Yes	1
8972	100	1	MOVIE	0	Biography	The Birth of a Nation	No	Yes	7
26693	213	3	SERIES/EPISODES	26	Drama	Sadeeqat Al Omor  	No	Yes	6
10930	88	1	MOVIE	0	Biography	Churchill	No	Yes	2
1407	636	10	SERIES/EPISODES	1	Animation	Fireman am	Yes	No	1
5363	74	1	MOVIE	0	Animation	The Mermaid Princess	No	Yes	1
5893	25	0	MOVIE	0	Drama	Feed	No	Yes	1
30180	1186	19	SERIES/EPISODES	2	Drama	Heroes	No	Yes	5
21126	146	2	MOVIE	0	Action	Prince of Persia: The ands of Time	No	Yes	1
938	53	0	MOVIE	0	Thriller	Runner Runner	No	Yes	1
23206	77	1	MOVIE	0	Animation	Spirit: tallion of the Cimarron	No	Yes	1
13010	68	1	MOVIE	0	Biography	The Founder	No	Yes	5
1672	4406	73	MOVIE	0	Animation	The Adventures of Petey and Friends	No	Yes	1
20657	80	1	MOVIE	0	NOT_DEFINED_IN_UMS	Dunkirk	No	Yes	1
9054	80	1	MOVIE	0	Drama	Aftermath	No	Yes	2
4812	72	1	MOVIE	0	Animation	Moana	No	Yes	8
10257	78	1	MOVIE	0	NOT_DEFINED_IN_UMS	Dunkirk	No	Yes	1
6301	750	12	SERIES/EPISODES	20	Animation	Min Qesas As-Saliheen	No	Yes	1
32260	15	0	MOVIE	0	Animation	Lego DC uper Hero Girls: Brain Drain	No	Yes	1
734	88	1	MOVIE	0	Horror	Inside	No	Yes	4
18434	6100	101	MOVIE	0	Action	Hanna	No	Yes	1
23675	83	1	MOVIE	0	Animation	Tad the Lost Explorer	No	Yes	1
7443	95	1	MOVIE	0	Action	The Hunter's Prayer	No	Yes	1
7912	130	2	MOVIE	0	Family	How To Train Your Dragon	No	Yes	1
469	28	0	MOVIE	0	Animation	Captain Underpants: The First Epic Movie	No	Yes	1
22737	95	1	MOVIE	0	Drama	Unforgettable	No	Yes	3
14152	234	3	SERIES/EPISODES	31	Animation	Slugterra	No	Yes	2
6505	81	1	MOVIE	0	Animation	Tad the Lost Explorer	No	Yes	1
19719	93	1	MOVIE	0	Animation	Trolls	No	Yes	3
3018	91	1	MOVIE	0	Animation	The Boss Baby	No	Yes	10
18169	5	0	MOVIE	0	Animation	The Adventures of Petey and Friends	No	Yes	1
12602	61	1	MOVIE	0	Action	Jack Reacher: Never Go Back	No	Yes	2
16028	24	0	MOVIE	0	Drama	Everything Will Be Fine	No	Yes	2
26138	68	1	MOVIE	0	Comedy	Fist Fight	No	Yes	2
34231	57	0	MOVIE	0	Action	Assassin's Creed	No	Yes	2
7418	78	1	MOVIE	0	Biography	Sully	No	Yes	6
19307	10	0	MOVIE	0	Action	The Man with the Iron Heart	No	Yes	1
21305	28	0	MOVIE	0	Animation	The Adventures of Petey and Friends	No	Yes	1
7254	17	0	MOVIE	0	Comedy	Their Finest	No	Yes	1
9416	3698	61	SERIES/EPISODES	2	Comedy	Friends	No	Yes	10
6358	44	0	MOVIE	0	Animation	Tad the Lost Explorer	No	Yes	1
11660	6820	113	MOVIE	0	Action	S.W.A.T.: Under iege	No	Yes	1
6215	99	1	MOVIE	0	Action	Baby Driver	No	Yes	2
9784	5278	87	MOVIE	0	Drama	Unforgettable	No	Yes	3
1035	100	1	MOVIE	0	Biography	The Birth of a Nation	No	Yes	7
18287	69	1	MOVIE	0	Action	Guardians Of The Tomb	No	Yes	1
7805	91	1	MOVIE	0	Animation	The Boss Baby	No	Yes	10
33846	86	1	MOVIE	0	Comedy	Going in tyle	No	Yes	3
3012	5194	86	MOVIE	0	Animation	The Boss Baby	No	Yes	10
29665	8	0	MOVIE	0	Action	Assassin's Creed	No	Yes	2
26811	108	1	MOVIE	0	Animation	The Adventures of Petey and Friends	No	Yes	1
3115	30	0	MOVIE	0	Animation	The Boss Baby	No	Yes	10
34050	2	0	MOVIE	0	Action	Instant Death	No	Yes	1
14535	6	0	MOVIE	0	Horror	Alien: Covenant	No	Yes	7
20142	2466	41	SERIES/EPISODES	3	Thriller	Dexter	No	Yes	10
16880	93	1	MOVIE	0	Animation	Trolls	No	Yes	3
19694	209	3	MOVIE	0	Action	The Man With The Iron Fists	No	Yes	3
14657	11	0	MOVIE	0	Animation	The Boss Baby	No	Yes	10
21917	10	0	MOVIE	0	Action	Resident Evil: The Final Chapter	No	Yes	1
28952	82	1	MOVIE	0	NOT_DEFINED_IN_UMS	Dunkirk	No	Yes	1
25404	5081	84	MOVIE	0	Thriller	Identity	No	Yes	2
10905	89	1	SERIES/EPISODES	21	Animation	Dinofroz  	No	Yes	2
14270	12	0	MOVIE	0	NOT_DEFINED_IN_UMS	Dunkirk	No	Yes	1
17696	9	0	MOVIE	0	Horror	Alien: Covenant	No	Yes	7
24323	171	2	SERIES/EPISODES	2	Animation	Littlest Pet hop	No	Yes	1
13067	21	0	MOVIE	0	Animation	Ferdinand	No	Yes	3
16245	17	0	MOVIE	0	Animation	Trolls	No	Yes	3
15269	65	1	MOVIE	0	Drama	Seven Pounds	No	Yes	1
7092	6244	104	MOVIE	0	Horror	Alien: Covenant	No	Yes	7
3727	71	1	MOVIE	0	Animation	Puss in Boots	No	Yes	1
25873	36	0	MOVIE	0	Action	Slow West	No	Yes	1
12863	3	0	MOVIE	0	Animation	Captain Underpants: The First Epic Movie	No	Yes	1
5378	3867	64	MOVIE	0	Action	The Expendables	No	Yes	8
1933	81	1	MOVIE	0	Animation	Lego cooby-Doo! Blowout Beach Bash	No	Yes	1
5010	8	0	SERIES/EPISODES	16	Horror	The Walking Dead	No	Yes	10
5073	18	0	MOVIE	0	Animation	Ferdinand	No	Yes	3
19164	6	0	MOVIE	0	Action	Spider-Man: Homecoming	No	Yes	2
33785	75	1	MOVIE	0	Animation	Tom & Jerry: Willy Wonka and the Chocolate	No	Yes	1
24405	82	1	MOVIE	0	Comedy	Paris Can Wait	No	Yes	1
934	9	0	MOVIE	0	Action	War for the Planet of the Apes	No	Yes	3
23324	7	0	MOVIE	0	Action	Parker	No	Yes	3
3094	92	1	MOVIE	0	Animation	Ferdinand	No	Yes	3
1912	97	1	MOVIE	0	Documentary	An Inconvenient equel: Truth to Power	No	Yes	2
3136	11	0	MOVIE	0	Animation	The Jetsons & WWE: Robo-WrestleMania!	No	Yes	1
8846	90	1	MOVIE	0	Horror	Alien: Covenant	No	Yes	7
2932	13	0	MOVIE	0	Animation	The Adventures of Petey and Friends	No	Yes	1
730	6	0	SERIES/EPISODES	25	Animation	Littlest Pet hop	No	Yes	1
3952	2	0	MOVIE	0	Animation	Jungle Master : Candy Planet	No	Yes	1
30012	82	1	MOVIE	0	Action	Instant Death	No	Yes	1
3279	2328	38	SERIES/EPISODES	3	Action	Blindspot	No	Yes	6
28319	15	0	MOVIE	0	Animation	Moana	No	Yes	8
25955	74	1	MOVIE	0	Animation	The Mermaid Princess	No	Yes	1
32521	88	1	MOVIE	0	Action	Into the torm	No	Yes	1
7235	358	5	MOVIE	0	Comedy	Bean	No	Yes	6
11027	16	0	MOVIE	0	Action	The Accountant	No	Yes	2
21713	1162	19	MOVIE	0	Animation	Dragon Ball Z: Resurrection F	No	Yes	1
22039	93	1	MOVIE	0	Animation	Ferdinand	No	Yes	3
29787	68	1	SERIES/EPISODES	1	Drama	Tareeki  	No	Yes	1
17206	55	0	MOVIE	0	Animation	Cloudy With a Chance of Meatballs	No	Yes	3
23732	77	1	MOVIE	0	Biography	Sully	No	Yes	6
10783	96	1	MOVIE	0	Action	Assassin's Creed	No	Yes	2
21263	75	1	MOVIE	0	Animation	The Mermaid Princess	No	Yes	1
13189	324	5	SERIES/EPISODES	1	Drama	Caramel  	No	Yes	3
21122	212	3	MOVIE	0	Documentary	He Named Me Malala	No	Yes	4
33602	73	1	MOVIE	0	Animation	The Mermaid Princess	No	Yes	1
5094	74	1	MOVIE	0	Animation	The Mermaid Princess	No	Yes	1
19387	64	1	MOVIE	0	Animation	The Adventures of Petey and Friends	No	Yes	1
5542	186	3	SERIES/EPISODES	4	Animation	Slugterra	No	Yes	2
18960	1386	23	SERIES/EPISODES	11	Animation	PAW Patrol	No	Yes	4
20081	1696	28	SERIES/EPISODES	6	Thriller	Hannibal	No	Yes	3
19143	83	1	MOVIE	0	Thriller	Gutshot traight	No	Yes	1
32990	9	0	MOVIE	0	Comedy	Snatched	No	Yes	1
17431	13	0	SERIES/EPISODES	2	Thriller	Dexter	No	Yes	10
8703	7205	120	MOVIE	0	Horror	The Exorcism Of Emily Rose	No	Yes	1
8417	96	1	MOVIE	0	Action	Assassin's Creed	No	Yes	2
30849	3871	64	SERIES/EPISODES	1	Drama	House	No	Yes	10
31379	29	0	MOVIE	0	Action	Jack Reacher: Never Go Back	No	Yes	2
30319	29	0	MOVIE	0	Comedy	Life As We Know It	No	Yes	1
24548	4	0	MOVIE	0	Drama	Despite the Falling now	No	Yes	1
2177	626	10	MOVIE	0	Animation	Moana	No	Yes	8
31053	2633	43	MOVIE	0	Action	Rollerball	No	Yes	1
31440	303	5	SERIES/EPISODES	18	Animation	Pingu	No	Yes	1
14291	90	1	MOVIE	0	Animation	The Boss Baby	No	Yes	10
19858	102	1	MOVIE	0	Animation	The Jetsons & WWE: Robo-WrestleMania!	No	Yes	1
8520	2120	35	MOVIE	0	Drama	Two For The Money	No	Yes	2
29074	4	0	MOVIE	0	Animation	The Adventures Of Tintin	No	Yes	1
200	25	0	MOVIE	0	Comedy	Why Did I Get Married Too?	No	Yes	3
18226	212	3	MOVIE	0	Animation	The Lego Movie	No	Yes	2
3218	63	1	MOVIE	0	Comedy	Table	No	Yes	1
17227	3	0	MOVIE	0	Horror	Shutter	No	Yes	1
14760	2	0	MOVIE	0	Horror	Rings	No	Yes	10
7786	29	0	MOVIE	0	Comedy	Blended	No	Yes	1
25221	45	0	MOVIE	0	Animation	Storks	No	Yes	1
19919	48	0	MOVIE	0	Animation	The murfs	No	Yes	6
10131	7	0	MOVIE	0	Action	Maalik	No	Yes	1
26750	2467	41	SERIES/EPISODES	2	Thriller	Damages	No	Yes	4
20184	1319	21	SERIES/EPISODES	13	Animation	Blaze And The Monster Machines	No	Yes	4
10253	7	0	MOVIE	0	Action	Pirates of the Caribbean: Dead Men Tell...	No	Yes	2
2015	89	1	MOVIE	0	Horror	Annabelle: Creation	No	Yes	7
3157	673	11	SERIES/EPISODES	29	Family	Me and My iblings	No	Yes	1
6440	16	0	SERIES/EPISODES	1	Drama	The Tunnel  eason2	No	Yes	1
9559	6590	109	MOVIE	0	Horror	Housebound	No	Yes	2
31236	81	1	MOVIE	0	Animation	Coco	No	Yes	2
18613	1276	21	SERIES/EPISODES	1	Comedy	Friends	No	Yes	10
32746	74	1	MOVIE	0	Animation	Moana	No	Yes	8
16899	52	0	MOVIE	0	Action	The Expendables	No	Yes	8
12272	36	0	MOVIE	0	Action	The Hunter's Prayer	No	Yes	1
32725	30	0	MOVIE	0	Comedy	He Was a Quiet Man	No	Yes	1
30807	66	1	MOVIE	0	Animation	Tad the Lost Explorer	No	Yes	1
19347	136	2	SERIES/EPISODES	1	Drama	24: Live Another Day	No	Yes	1
4564	148	2	MOVIE	0	Comedy	White Chicks	No	Yes	6
9601	72	1	MOVIE	0	Horror	Morgan	No	Yes	1
22203	90	1	MOVIE	0	Horror	Lights Out	No	Yes	1
29524	1489	24	SERIES/EPISODES	30	Comedy	Kalam A-Nas	No	Yes	4
30176	27367	456	MOVIE	0	Crime	Inside Man	No	Yes	10
28544	16	0	SERIES/EPISODES	0	Family	Yo Gabba Gabba!	No	Yes	10
6091	176	2	MOVIE	0	Animation	The Boss Baby	No	Yes	10
32685	13	0	MOVIE	0	Comedy	The Family Man	No	Yes	4
21530	14	0	MOVIE	0	Action	Assassin's Creed	No	Yes	2
2402	24	0	MOVIE	0	Animation	Mr. Peabody & herman	No	Yes	1
14005	83	1	MOVIE	0	Animation	Surf's Up : WaveMania	No	Yes	1
28096	317	5	SERIES/EPISODES	1	Animation	My Little Pony: Friendship Is Magic  	No	Yes	2
6623	87	1	MOVIE	0	Animation	Moana	No	Yes	8
11456	95	1	MOVIE	0	Horror	Rings	No	Yes	10
30462	14	0	MOVIE	0	Biography	Rebel in the Rye	No	Yes	1
13923	10	0	MOVIE	0	Action	Instant Death	No	Yes	1
13088	93	1	MOVIE	0	Drama	The hape of Water	No	Yes	3
17717	59	0	MOVIE	0	Animation	The Mermaid Princess	No	Yes	1
15433	7	0	MOVIE	0	Biography	Sully	No	Yes	6
25017	90	1	MOVIE	0	Animation	The Boss Baby	No	Yes	10
18920	900	15	MOVIE	0	Comedy	About Last Night	No	Yes	1
34071	56	0	MOVIE	0	Comedy	Here Comes The Boom	No	Yes	5
19715	34	0	MOVIE	0	Animation	Trolls	No	Yes	3
23425	23	0	MOVIE	0	Animation	Alvin and the Chipmunks: The queakquel	No	Yes	1
3483	10	0	MOVIE	0	Animation	The Jetsons & WWE: Robo-WrestleMania!	No	Yes	1
17656	2	0	SERIES/EPISODES	2	Action	Blindspot	No	Yes	6
13271	337	5	SERIES/EPISODES	1	Animation	Pingu	No	Yes	1
1975	4344	72	MOVIE	0	Animation	The impsons Movie	No	Yes	1
1260	6	0	MOVIE	0	Biography	Rebel in the Rye	No	Yes	1
28157	59	0	MOVIE	0	Documentary	Russia's Wild Arctic	No	Yes	2
31909	84	1	MOVIE	0	Animation	Surf's Up : WaveMania	No	Yes	1
3178	60	1	MOVIE	0	Action	Honey  I Blew Up the Kid	No	Yes	1
13170	113	1	SERIES/EPISODES	0	Horror	The Walking Dead	No	Yes	10
29625	96	1	MOVIE	0	Drama	Unforgettable	No	Yes	3
19450	1384	23	SERIES/EPISODES	21	Animation	PAW Patrol	No	Yes	4
14373	91	1	MOVIE	0	Animation	The Boss Baby	No	Yes	10
20428	48	0	MOVIE	0	Drama	Unbroken	No	Yes	10
5115	91	1	MOVIE	0	Animation	The Boss Baby	No	Yes	10
26649	89	1	MOVIE	0	Comedy	Snatched	No	Yes	1
5788	17	0	MOVIE	0	Animation	The Boss Baby	No	Yes	10
28586	29	0	MOVIE	0	Horror	Rings	No	Yes	10
26241	498	8	SERIES/EPISODES	1	Drama	The Black Envelope  	Yes	No	1
8459	1465	24	SERIES/EPISODES	5	Animation	Teletubbies	No	Yes	9
26384	25	0	SERIES/EPISODES	3	Horror	The Walking Dead	Yes	No	10
11559	91	1	MOVIE	0	Animation	The Boss Baby	No	Yes	10
13843	81	1	MOVIE	0	Action	Jack Reacher: Never Go Back	No	Yes	2
27587	1264	21	SERIES/EPISODES	19	Comedy	Kalam A-Nas	No	Yes	4
29789	64	1	MOVIE	0	Animation	The Adventures of Petey and Friends	No	Yes	1
5054	68	1	MOVIE	0	Action	47 Ronin	No	Yes	4
18777	240	4	MOVIE	0	Animation	Dragon Ball Z: Resurrection F	No	Yes	1
24569	11	0	MOVIE	0	Action	Men In Black	No	Yes	3
4890	6	0	MOVIE	0	Animation	Trolls	No	Yes	3
21877	5905	98	MOVIE	0	Action	John Wick: Chapter	No	Yes	2
8236	10	0	MOVIE	0	Comedy	Why Him	No	Yes	2
16977	5	0	MOVIE	0	Thriller	Red Dragon	No	Yes	9
25711	77	1	MOVIE	0	Comedy	Tambola	Yes	No	1
2972	2	0	MOVIE	0	Documentary	An Inconvenient equel: Truth to Power	No	Yes	2
16922	96	1	MOVIE	0	Biography	Marshall	No	Yes	1
25976	59	0	MOVIE	0	Comedy	Baywatch	No	Yes	6
11273	30	0	MOVIE	0	Animation	The Jetsons & WWE: Robo-WrestleMania!	No	Yes	1
33583	60	1	MOVIE	0	Animation	Moana	No	Yes	8
23427	65	1	MOVIE	0	Animation	The Adventures of Petey and Friends	No	Yes	1
10335	98	1	MOVIE	0	Documentary	An Inconvenient equel: Truth to Power	No	Yes	2
15740	848	14	SERIES/EPISODES	7	Horror	American Horror tory	No	Yes	2
8173	2169	36	SERIES/EPISODES	13	Horror	The Walking Dead	No	Yes	10
5828	42	0	MOVIE	0	Animation	The Adventures of Petey and Friends	No	Yes	1
3933	2	0	MOVIE	0	Horror	Rings	No	Yes	10
16779	93	1	MOVIE	0	Animation	Trolls	No	Yes	3
8358	136	2	MOVIE	0	Animation	The pongeBob quarePants Movie	No	Yes	1
15168	25	0	SERIES/EPISODES	1	Thriller	Penny Dreadful	No	Yes	1
2322	43	0	MOVIE	0	Action	The November Man	No	Yes	4
13292	88	1	MOVIE	0	Comedy	Snatched	No	Yes	1
25732	58	0	MOVIE	0	Comedy	Youm Maloosh Lazma	No	Yes	10
29953	48	0	SERIES/EPISODES	0	Animation	Kung Fu Panda: Legends Of Awesomeness	No	Yes	1
10865	1063	17	SERIES/EPISODES	6	Comedy	2 Fil-Isaaf  	No	Yes	1
26201	75	1	MOVIE	0	Comedy	Snatched	No	Yes	1
179	124	2	MOVIE	0	Action	Harry Potter Part	No	Yes	1
16005	89	1	MOVIE	0	Animation	The Nut Job : Nutty by Nature	No	Yes	1
32033	3	0	MOVIE	0	Animation	The Nut Job : Nutty by Nature	No	Yes	1
12783	1407	23	MOVIE	0	Comedy	Trading Places	No	Yes	1
8684	27	0	MOVIE	0	Action	Assassin's Creed	No	Yes	2
33848	2462	41	SERIES/EPISODES	12	Action	Teen Wolf	Yes	No	10
24121	1884	31	MOVIE	0	Animation	Dragon Ball Z: Resurrection F	No	Yes	1
10438	91	1	MOVIE	0	Animation	The Boss Baby	No	Yes	10
32439	97	1	MOVIE	0	Horror	Rings	No	Yes	10
31890	363	6	MOVIE	0	Animation	Ice Age: The Meltdown	No	Yes	1
28077	46	0	MOVIE	0	Animation	Shrek The Third	No	Yes	1
23652	81	1	MOVIE	0	Action	Instant Death	No	Yes	1
10234	432	7	MOVIE	0	Action	Machete Kills	No	Yes	1
25589	658	10	SERIES/EPISODES	30	Drama	Al Hob Al Halal	No	Yes	1
22428	91	1	MOVIE	0	Animation	The Boss Baby	No	Yes	10
22571	1326	22	SERIES/EPISODES	3	Animation	Littlest Pet hop  	No	Yes	1
31339	93	1	MOVIE	0	Animation	Trolls	No	Yes	3
15576	15	0	MOVIE	0	Thriller	Exam	No	Yes	2
31135	98	1	MOVIE	0	Action	First Kill	No	Yes	1
24590	100	1	MOVIE	0	Comedy	A Dog's Purpose	No	Yes	2
31217	75	1	MOVIE	0	Animation	The Mermaid Princess	No	Yes	1
14066	13	0	MOVIE	0	Biography	The Birth of a Nation	No	Yes	7
7950	5971	99	MOVIE	0	Horror	Annabelle	No	Yes	3
5544	12	0	MOVIE	0	Thriller	10 Days in a Madhouse	No	Yes	4
26548	40614	676	MOVIE	0	Comedy	Paris Can Wait	No	Yes	1
12396	5228	87	MOVIE	0	Animation	The Boss Baby	No	Yes	10
8337	93	1	MOVIE	0	Action	The Hobbit: The Desolation Of maug	No	Yes	2
1262	2958	49	MOVIE	0	Horror	Rings	No	Yes	10
20817	91	1	MOVIE	0	Horror	Escape Room	No	Yes	2
31625	53	0	MOVIE	0	Animation	Storks	No	Yes	1
4341	94	1	MOVIE	0	Drama	Snowden	No	Yes	2
20613	1319	21	SERIES/EPISODES	14	Animation	Blaze And The Monster Machines	No	Yes	4
7563	28	0	MOVIE	0	Animation	Captain Underpants: The First Epic Movie	No	Yes	1
2404	75	1	MOVIE	0	Animation	The Mermaid Princess	No	Yes	1
17820	82	1	MOVIE	0	Animation	Hotel Transylvania	No	Yes	2
14985	52	0	MOVIE	0	Drama	Unbroken	No	Yes	10
6421	84	1	MOVIE	0	Animation	Surf's Up : WaveMania	No	Yes	1
7828	2635	43	SERIES/EPISODES	14	Drama	Heroes	No	Yes	5
4606	5	0	SERIES/EPISODES	12	Drama	Quantico	No	Yes	2
23103	11	0	MOVIE	0	Action	Oblivion	No	Yes	4
18554	28	0	MOVIE	0	Action	War for the Planet of the Apes	No	Yes	3
27751	50	0	MOVIE	0	Drama	T2 Trainspotting	No	Yes	1
7155	5741	95	MOVIE	0	Action	Instant Death	No	Yes	1
32626	6	0	MOVIE	0	Animation	The Boss Baby	No	Yes	10
27528	1328	22	SERIES/EPISODES	8	Animation	Littlest Pet hop  	No	Yes	1
33095	135	2	SERIES/EPISODES	1	Animation	SpongeBob quarePants	No	Yes	2
8278	1687	28	SERIES/EPISODES	1	Action	The Flash	No	Yes	5
22449	57	0	MOVIE	0	Comedy	Bean	No	Yes	6
2711	85	1	MOVIE	0	Action	The Amazing pider-Man	No	Yes	10
30687	23	0	MOVIE	0	Biography	Rebel in the Rye	No	Yes	1
22430	24	0	MOVIE	0	Animation	Tad the Lost Explorer	No	Yes	1
3180	64	1	MOVIE	0	Animation	The Adventures of Petey and Friends	No	Yes	1
9216	1141	19	SERIES/EPISODES	6	Horror	American Horror tory	No	Yes	2
33114	15	0	MOVIE	0	Animation	Trolls	No	Yes	3
22447	59	0	MOVIE	0	Comedy	Baywatch	No	Yes	6
29404	107	1	MOVIE	0	Action	Salt	No	Yes	4
28935	56	0	MOVIE	0	Drama	American Honey	No	Yes	1
9685	100	1	MOVIE	0	Comedy	Table	No	Yes	1
33360	1445	24	SERIES/EPISODES	1	Comedy	Gameel Wa Mostaheel  	No	Yes	1
26466	78	1	MOVIE	0	Biography	Sully	No	Yes	6
4118	64	1	MOVIE	0	Animation	The Adventures of Petey and Friends	No	Yes	1
31280	7	0	MOVIE	0	Animation	Coco	No	Yes	2
20819	126	2	MOVIE	0	Animation	The Mermaid Princess	No	Yes	1
29200	22	0	MOVIE	0	Comedy	Tambola	No	Yes	1
16659	15	0	MOVIE	0	Action	Kingsman: The Golden Circle	No	Yes	1
16657	1380	23	SERIES/EPISODES	13	Animation	Dora the Explorer	No	Yes	3
18941	1407	23	SERIES/EPISODES	1	Animation	Shimmer And hine	No	Yes	2
160	195	3	SERIES/EPISODES	147	Animation	Nan and Lili	No	Yes	1
10154	3476	57	SERIES/EPISODES	5	Horror	Bates Motel	No	Yes	1
1569	16	0	MOVIE	0	Animation	Coco	No	Yes	2
21288	72	1	MOVIE	0	Animation	Moana	No	Yes	8
26651	1326	22	SERIES/EPISODES	15	Animation	My Little Pony: Friendship Is Magic  	No	Yes	2
30342	3	0	MOVIE	0	Comedy	The House	No	Yes	1
3241	97	1	MOVIE	0	Action	Assassin's Creed	No	Yes	2
1607	1401	23	SERIES/EPISODES	23	Animation	SpongeBob quarePants	No	Yes	2
13641	8	0	SERIES/EPISODES	1	Horror	Masters of Horror	No	Yes	1
18800	273	4	MOVIE	0	Action	Baby Driver	No	Yes	2
13437	81	1	MOVIE	0	Animation	Tad the Lost Explorer	No	Yes	1
8074	34	0	MOVIE	0	Action	Cop Out	No	Yes	1
16514	30	0	MOVIE	0	Action	Spider-Man: Homecoming	No	Yes	2
9481	13	0	SERIES/EPISODES	0	Comedy	Friends	No	Yes	10
8543	6	0	MOVIE	0	Documentary	An Inconvenient equel: Truth to Power	No	Yes	2
25244	9	0	MOVIE	0	Drama	Billy Lynn’s Long Halftime Walk	No	Yes	1
1100	2	0	MOVIE	0	Comedy	Going in tyle	No	Yes	3
24102	3033	50	MOVIE	0	Animation	Trolls	No	Yes	3
4543	681	11	SERIES/EPISODES	13	Drama	Laqet Rohey	No	Yes	3
6463	85	1	SERIES/EPISODES	1	Family	My Arabic Home	No	Yes	1
28262	73	1	MOVIE	0	Animation	The Mermaid Princess	No	Yes	1
427	9	0	MOVIE	0	Action	Robin Hood	No	Yes	4
24775	26	0	MOVIE	0	Drama	Collateral Beauty	No	Yes	4
16190	78	1	MOVIE	0	Thriller	Drive Angry	No	Yes	10
32014	16	0	MOVIE	0	Animation	Surf's Up : WaveMania	No	Yes	1
31341	400	6	SERIES/EPISODES	52	Animation	Marcus Level  	No	Yes	1
32422	26	0	SERIES/EPISODES	0	Drama	Akoon Aw La  	No	Yes	1
29873	2307	38	SERIES/EPISODES	20	Drama	Ward Jouri  	No	Yes	1
19412	6	0	MOVIE	0	Drama	Please tand By	No	Yes	1
19004	108	1	MOVIE	0	Action	The Dark Tower	No	Yes	1
10827	26	0	MOVIE	0	Thriller	Nightcrawler	No	Yes	4
16129	82	1	MOVIE	0	Animation	Surf's Up : WaveMania	No	Yes	1
33417	31	0	MOVIE	0	Animation	Coco	No	Yes	2
30281	15	0	MOVIE	0	Comedy	Snatched	No	Yes	1
13029	106	1	SERIES/EPISODES	0	Horror	The Walking Dead	No	Yes	10
6055	80	1	MOVIE	0	Comedy	Tambola	No	Yes	1
14049	66	1	MOVIE	0	Biography	The Birth of a Nation	No	Yes	7
26712	83	1	MOVIE	0	Horror	Underground	No	Yes	1
19147	8	0	MOVIE	0	Drama	21 Grams	No	Yes	2
9420	120	2	MOVIE	0	Comedy	Little Fockers	No	Yes	1
17597	68	1	MOVIE	0	Thriller	Piranha DD	No	Yes	1
25652	91	1	MOVIE	0	Drama	Aftermath	No	Yes	2
33299	72	1	MOVIE	0	Animation	Moana	No	Yes	8
19616	7	0	SERIES/EPISODES	5	Drama	Power	Yes	No	1
11357	185	3	SERIES/EPISODES	1	Action	Teen Wolf	No	Yes	10
15660	99	1	MOVIE	0	Horror	Rings	No	Yes	10
2446	82	1	MOVIE	0	Animation	Coco	No	Yes	2
4322	80	1	MOVIE	0	Action	Kingsman: The Golden Circle	Yes	No	1
7197	17	0	MOVIE	0	Action	Morning tar	No	Yes	1
7258	244	4	SERIES/EPISODES	1	Action	Painkiller Jane	No	Yes	1
32830	102	1	MOVIE	0	Animation	The Jetsons & WWE: Robo-WrestleMania!	No	Yes	1
6646	25	0	MOVIE	0	Horror	Alien: Covenant	No	Yes	7
30546	78	1	MOVIE	0	Biography	Sully	No	Yes	6
28588	99	1	MOVIE	0	Animation	Storks	No	Yes	1
9073	68	1	MOVIE	0	Animation	The Jetsons & WWE: Robo-WrestleMania!	No	Yes	1
26325	2294	38	SERIES/EPISODES	19	Drama	24	Yes	No	6
3975	62	1	SERIES/EPISODES	19	Comedy	Friends	Yes	No	10
10684	94	1	MOVIE	0	Animation	Ferdinand	No	Yes	3
27732	72	1	MOVIE	0	Horror	The Possession Experiment	No	Yes	1
11092	3363	56	MOVIE	0	Comedy	The Holiday	No	Yes	4
25938	6169	102	MOVIE	0	Action	Battleship	No	Yes	4
28956	1349	22	MOVIE	0	Action	Jumanji: Welcome to the Jungle	No	Yes	2
15578	75	1	MOVIE	0	Animation	The Mermaid Princess	No	Yes	1
14110	29	0	MOVIE	0	Biography	Churchill	No	Yes	2
31974	73	1	MOVIE	0	Animation	Moana	No	Yes	8
29425	100	1	MOVIE	0	Horror	Rings	No	Yes	10
32218	97	1	MOVIE	0	Biography	The Birth of a Nation	No	Yes	7
14987	77	1	MOVIE	0	Animation	Barnyard	No	Yes	1
5525	41	0	MOVIE	0	Thriller	The Da Vinci Code	No	Yes	6
15721	418	6	SERIES/EPISODES	1	Animation	Shimmer And hine	No	Yes	2
17822	23	0	MOVIE	0	Animation	Captain Underpants: The First Epic Movie	No	Yes	1
29894	94	1	MOVIE	0	Animation	The Mermaid Princess	No	Yes	1
6198	27	0	MOVIE	0	Drama	Closer	No	Yes	1
13193	2630	43	SERIES/EPISODES	25	Drama	Sadeeqat Al Omor  	No	Yes	6
24327	6	0	SERIES/EPISODES	1	Action	Agents of .H.I.E.L.D.	No	Yes	5
32443	83	1	MOVIE	0	Horror	Escape Room	No	Yes	2
27242	8	0	MOVIE	0	Drama	100 treets	No	Yes	1
1590	121	2	MOVIE	0	Action	Machete Kills	No	Yes	1
2059	96	1	MOVIE	0	Animation	Trolls	No	Yes	3
27038	2	0	MOVIE	0	Comedy	Baywatch	No	Yes	6
30363	94	1	MOVIE	0	Animation	Trolls	No	Yes	3
33156	507	8	MOVIE	0	Animation	Batman vs. Two Face	No	Yes	1
22716	65	1	MOVIE	0	Drama	Seven Pounds	No	Yes	1
13662	87	1	MOVIE	0	Comedy	Going in tyle	No	Yes	3
33625	37	0	MOVIE	0	Comedy	Youm Maloosh Lazma	No	Yes	10
31301	17	0	MOVIE	0	Comedy	Baywatch	No	Yes	6
16680	1288	21	SERIES/EPISODES	23	Comedy	Kalam A-Nas	No	Yes	4
6219	34	0	SERIES/EPISODES	0	Sci-Fi	The hannara Chronicles	No	Yes	10
14600	3	0	MOVIE	0	Documentary	Born in China	No	Yes	1
6015	80	1	MOVIE	0	Action	Geostorm	No	Yes	3
15273	6577	109	MOVIE	0	Comedy	Youm Maloosh Lazma	No	Yes	10
27814	39	0	MOVIE	0	Drama	Billy Lynn’s Long Halftime Walk	No	Yes	1
23858	64	1	MOVIE	0	Animation	The Adventures of Petey and Friends	No	Yes	1
20371	40	0	MOVIE	0	Action	xXx: Return of Xander Cage	No	Yes	2
14804	66	1	MOVIE	0	Animation	Storks	No	Yes	1
2976	6	0	MOVIE	0	Animation	Coco	No	Yes	2
6688	65	1	MOVIE	0	Animation	The Adventures of Petey and Friends	No	Yes	1
23185	2439	40	SERIES/EPISODES	2	Thriller	Hannibal	No	Yes	3
32912	6	0	MOVIE	0	Animation	Coco	No	Yes	2
9706	1279	21	SERIES/EPISODES	11	Comedy	Friends	No	Yes	10
33850	12	0	MOVIE	0	Comedy	Baywatch	No	Yes	6
23429	100	1	MOVIE	0	Horror	Rings	No	Yes	10
19229	80	1	MOVIE	0	Comedy	Puerto Ricans in Paris	No	Yes	1
11113	87	1	MOVIE	0	Comedy	Going in tyle	No	Yes	3
2202	1241	20	SERIES/EPISODES	1	Horror	The Walking Dead	Yes	No	10
15538	17	0	SERIES/EPISODES	15	Animation	Blaze And The Monster Machines	No	Yes	4
10787	2600	43	SERIES/EPISODES	12	Comedy	House of Lies	Yes	No	1
33055	92	1	MOVIE	0	Animation	The Boss Baby	No	Yes	10
10909	1354	22	MOVIE	0	Action	Killer Elite	No	Yes	3
17149	2	0	MOVIE	0	Documentary	Russia's Wild Arctic	No	Yes	2
2997	476	7	MOVIE	0	Documentary	Winston Churchill: Walking with Destiny	No	Yes	1
24939	2383	39	SERIES/EPISODES	5	Horror	The Walking Dead	No	Yes	10
16354	745	12	SERIES/EPISODES	13	Animation	Marcus Level  	No	Yes	1
31566	33	0	MOVIE	0	Comedy	Puerto Ricans in Paris	No	Yes	1
5220	74	1	MOVIE	0	Action	Sleepless	No	Yes	1
2671	27	0	MOVIE	0	Adventure	Pete's Dragon	No	Yes	10
12989	56	0	MOVIE	0	Animation	Ferdinand	No	Yes	3
13458	94	1	MOVIE	0	Family	Dolphin Tale	No	Yes	1
122	84	1	MOVIE	0	Animation	Surf's Up : WaveMania	No	Yes	1
25408	72	1	MOVIE	0	Animation	Moana	No	Yes	8
23654	75	1	MOVIE	0	Animation	Trolls	No	Yes	3
30975	64	1	MOVIE	0	Horror	The Neighbor	No	Yes	1
7035	83	1	MOVIE	0	Animation	Surf's Up : WaveMania	No	Yes	1
20636	76	1	MOVIE	0	Thriller	Pressure	No	Yes	1
17292	1229	20	SERIES/EPISODES	3	Comedy	Community  	No	Yes	1
4669	88	1	MOVIE	0	Horror	Inside	No	Yes	4
8707	15	0	MOVIE	0	Drama	100 treets	No	Yes	1
15620	92	1	MOVIE	0	Animation	Ferdinand	No	Yes	3
11725	46	0	MOVIE	0	Biography	Rebel in the Rye	No	Yes	1
26754	91	1	MOVIE	0	Animation	The Boss Baby	No	Yes	10
1182	80	1	MOVIE	0	Action	Geostorm	No	Yes	3
20310	15	0	MOVIE	0	Drama	Fences	No	Yes	2
28426	8	0	MOVIE	0	Animation	Dragon Ball Z: Resurrection F	No	Yes	1
13071	81	1	MOVIE	0	Animation	Coco	No	Yes	2
21187	79	1	MOVIE	0	Animation	Coco	No	Yes	2
22512	27	0	SERIES/EPISODES	12	Drama	A-Sayeda Al Oula	No	Yes	2
9176	7081	118	MOVIE	0	Comedy	Paul Blart: Mall Cop	No	Yes	1
2141	30	0	MOVIE	0	Drama	Collateral Beauty	No	Yes	4
21860	4	0	MOVIE	0	Action	London Heist	No	Yes	1
4486	82	1	MOVIE	0	Action	Instant Death	No	Yes	1
16293	35	0	MOVIE	0	Animation	The Nut Job : Nutty by Nature	No	Yes	1
4078	89	1	MOVIE	0	Drama	Collateral Beauty	No	Yes	4
26815	24	0	MOVIE	0	Action	Smokin' Aces : Assassins' Ball	No	Yes	1
18638	2019	33	MOVIE	0	Action	The Amazing pider-Man	No	Yes	10
10726	80	1	MOVIE	0	NOT_DEFINED_IN_UMS	Dunkirk	No	Yes	1
10522	6786	113	MOVIE	0	Comedy	Here Comes The Boom	Yes	No	5
24878	10	0	MOVIE	0	Documentary	An Inconvenient equel: Truth to Power	No	Yes	2
2406	26	0	MOVIE	0	Action	Transformers: Age of Extinction	No	Yes	1
18230	22	0	MOVIE	0	Action	Underworld: Awakening	No	Yes	1
21656	5	0	MOVIE	0	Animation	Tad the Lost Explorer	No	Yes	1
33259	28	0	MOVIE	0	Animation	Dragon Ball Z: Resurrection F	No	Yes	1
27284	93	1	MOVIE	0	Animation	Trolls	No	Yes	3
8177	283	4	SERIES/EPISODES	22	Comedy	Bou Droosh	No	Yes	1
13744	75	1	MOVIE	0	Animation	The Mermaid Princess	No	Yes	1
27896	143	2	MOVIE	0	Comedy	Enchanted	No	Yes	1
32056	102	1	MOVIE	0	Animation	The Jetsons & WWE: Robo-WrestleMania!	No	Yes	1
33320	16	0	MOVIE	0	Action	Battle Los Angeles	No	Yes	1
31118	49	0	SERIES/EPISODES	0	Drama	Hell On Wheels	No	Yes	2
12337	8988	149	MOVIE	0	Action	The Accountant	No	Yes	2
2610	738	12	SERIES/EPISODES	47	Animation	Marcus Level  	No	Yes	1
6770	27	0	MOVIE	0	Action	Instant Death	No	Yes	1
1203	91	1	MOVIE	0	Animation	The Boss Baby	No	Yes	10
2467	51	0	MOVIE	0	Horror	Alien: Covenant	No	Yes	7
8442	31	0	MOVIE	0	Horror	The Monster	No	Yes	2
2345	181	3	SERIES/EPISODES	12	Comedy	Friends	Yes	No	10
16558	2	0	MOVIE	0	Action	From Paris With Love	No	Yes	1
22064	94	1	MOVIE	0	Drama	Unforgettable	No	Yes	3
22655	76	1	MOVIE	0	Biography	Sully	No	Yes	6
19780	831	13	MOVIE	0	Drama	Finding Forrester	No	Yes	5
11460	57	0	MOVIE	0	Action	The Hunter's Prayer	No	Yes	1
15355	18	0	SERIES/EPISODES	1	Horror	American Horror tory	No	Yes	2
34197	193	3	MOVIE	0	Comedy	Think Like A Man	No	Yes	5
14213	87	1	MOVIE	0	Horror	Inside	No	Yes	4
8646	1971	32	MOVIE	0	Thriller	Agenda	Yes	No	1
29507	6	0	MOVIE	0	Biography	Sully	No	Yes	6
14539	22	0	MOVIE	0	Action	Slow West	No	Yes	1
14417	93	1	MOVIE	0	Animation	Mission Kathmandu	No	Yes	1
23940	207	3	MOVIE	0	Comedy	Tambola	No	Yes	1
8972	45	0	MOVIE	0	Animation	The Mermaid Princess	No	Yes	1
34136	89	1	MOVIE	0	Horror	A Cure for Wellness	No	Yes	3
26693	243	4	MOVIE	0	Animation	Tom and Jerry: The Lost Dragon	No	Yes	1
10930	9441	157	MOVIE	0	Animation	The Mermaid Princess	No	Yes	1
1407	707	11	SERIES/EPISODES	5	Animation	Animal Mechanicals	Yes	No	1
5363	6	0	MOVIE	0	Animation	Captain Underpants: The First Epic Movie	No	Yes	1
5893	82	1	MOVIE	0	Action	John Wick: Chapter	No	Yes	2
30180	9	0	SERIES/EPISODES	1	Drama	Power	No	Yes	1
21126	16	0	MOVIE	0	Comedy	Miss Congeniality	No	Yes	1
15090	87	1	MOVIE	0	Horror	Inside	No	Yes	4
938	2	0	SERIES/EPISODES	0	Drama	A-Shaqiqatan	No	Yes	1
15559	59	0	MOVIE	0	Comedy	Baywatch	No	Yes	6
23206	75	1	MOVIE	0	Comedy	Pixels	No	Yes	1
13010	58	0	MOVIE	0	Drama	Arrival	No	Yes	2
1672	89	1	MOVIE	0	Comedy	Enchanted	No	Yes	1
9054	78	1	MOVIE	0	Comedy	Table	No	Yes	1
4812	72	1	MOVIE	0	Animation	Moana	No	Yes	8
10257	94	1	MOVIE	0	Drama	The hape of Water	No	Yes	3
29242	28	0	MOVIE	0	Action	Born Of War	No	Yes	1
4282	55	0	MOVIE	0	Action	Logan	No	Yes	1
6301	810	13	SERIES/EPISODES	3	Animation	Min Qesas As-Saliheen	No	Yes	1
32260	82	1	MOVIE	0	Animation	Tad the Lost Explorer	No	Yes	1
734	26	0	MOVIE	0	Animation	The Jetsons & WWE: Robo-WrestleMania!	No	Yes	1
18434	6164	102	MOVIE	0	Drama	11.6	No	Yes	2
7443	87	1	MOVIE	0	Comedy	Going in tyle	No	Yes	3
1264	33	0	MOVIE	0	Horror	Rings	No	Yes	10
7912	120	2	MOVIE	0	Animation	The Tale of Princess Kaguya	No	Yes	1
14621	86	1	MOVIE	0	Comedy	Norbit	No	Yes	1
29711	18	0	MOVIE	0	Thriller	Our Kind Of Traitor	No	Yes	1
6505	81	1	MOVIE	0	Animation	Tad the Lost Explorer	No	Yes	1
19719	77	1	MOVIE	0	Animation	Hotel Transylvania	No	Yes	2
3018	101	1	MOVIE	0	Animation	The Jetsons & WWE: Robo-WrestleMania!	No	Yes	1
18169	15	0	MOVIE	0	Comedy	Mean Girls	No	Yes	1
12602	35	0	MOVIE	0	Action	The Accountant	No	Yes	2
16028	4	0	MOVIE	0	Drama	Mississippi Grind	No	Yes	1
2625	23	0	SERIES/EPISODES	3	Animation	Blaze And The Monster Machines	No	Yes	4
26138	63	1	MOVIE	0	Thriller	Marauders	No	Yes	4
6314	87	1	MOVIE	0	Drama	Collateral Beauty	No	Yes	4
19307	13	0	MOVIE	0	Animation	Trolls	No	Yes	3
21305	64	1	MOVIE	0	Animation	The Adventures of Petey and Friends	No	Yes	1
7416	75	1	MOVIE	0	Animation	The Mermaid Princess	No	Yes	1
20775	2	0	MOVIE	0	Comedy	Easy A	No	Yes	2
9416	1071	17	SERIES/EPISODES	1	Comedy	Friends	No	Yes	10
6358	20	0	MOVIE	0	Animation	Ferdinand	No	Yes	3
11660	5781	96	MOVIE	0	Action	London Heist	No	Yes	1
6215	102	1	MOVIE	0	Action	Baby Driver	No	Yes	2
9784	74	1	MOVIE	0	Animation	The Mermaid Princess	No	Yes	1
1035	87	1	MOVIE	0	Action	Kidnap	No	Yes	2
18287	5	0	MOVIE	0	Comedy	Little Fockers	No	Yes	1
7805	6057	100	MOVIE	0	Comedy	Baywatch	No	Yes	6
33846	74	1	MOVIE	0	Animation	The Mermaid Princess	No	Yes	1
3012	5600	93	MOVIE	0	Animation	The Boss Baby	No	Yes	10
29665	162	2	MOVIE	0	Animation	The Boss Baby	No	Yes	10
25343	9	0	MOVIE	0	Thriller	The Boy Next Door	No	Yes	4
26811	65	1	MOVIE	0	Animation	The Adventures of Petey and Friends	No	Yes	1
3115	34	0	MOVIE	0	Animation	Coco	No	Yes	2
14535	87	1	MOVIE	0	Comedy	Going in tyle	No	Yes	3
20142	79	1	MOVIE	0	Comedy	The Intervention	No	Yes	1
16880	81	1	MOVIE	0	Action	Geostorm	No	Yes	3
19694	10	0	SERIES/EPISODES	1	Drama	The Black Envelope  	No	Yes	1
21917	135	2	MOVIE	0	Action	Prince of Persia: The ands of Time	No	Yes	1
28952	2643	44	SERIES/EPISODES	1	Action	Vikings	No	Yes	7
27423	3	0	MOVIE	0	Comedy	Mamma Mia	No	Yes	2
25404	12	0	SERIES/EPISODES	3	Drama	Doctorah Fi Al Hob	No	Yes	1
10905	15	0	SERIES/EPISODES	1	Animation	PAW Patrol	No	Yes	4
14270	16	0	MOVIE	0	NOT_DEFINED_IN_UMS	Dunkirk	No	Yes	1
17696	95	1	MOVIE	0	Drama	The hape of Water	No	Yes	3
24323	1351	22	SERIES/EPISODES	5	Comedy	iCarly	No	Yes	1
13067	13	0	MOVIE	0	Biography	Rebel in the Rye	No	Yes	1
16245	97	1	MOVIE	0	Animation	The Boss Baby	No	Yes	10
15269	75	1	MOVIE	0	Biography	Rebel in the Rye	No	Yes	1
7092	22	0	MOVIE	0	Thriller	Phantom Halo	No	Yes	1
3727	7	0	MOVIE	0	Animation	Cinderella	No	Yes	1
25873	25	0	MOVIE	0	Biography	Lion	No	Yes	5
12863	28	0	MOVIE	0	Animation	The Boss Baby	No	Yes	10
5378	602	10	SERIES/EPISODES	1	Animation	Marcus Level  	No	Yes	1
1933	81	1	MOVIE	0	Animation	Lego cooby-Doo! Blowout Beach Bash	No	Yes	1
5010	2531	42	SERIES/EPISODES	9	Action	Vikings	No	Yes	7
5073	3	0	MOVIE	0	Drama	The hape of Water	No	Yes	3
14331	17	0	MOVIE	0	Animation	Moana	No	Yes	8
33785	87	1	MOVIE	0	Animation	The Boss Baby	No	Yes	10
5174	114	1	MOVIE	0	Animation	Dragon Ball Z: Resurrection F	No	Yes	1
24405	90	1	MOVIE	0	Action	Thor: Ragnarok	No	Yes	1
934	35	0	MOVIE	0	Action	War for the Planet of the Apes	No	Yes	3
23324	43	0	MOVIE	0	Comedy	Fun with Dick and Jane	No	Yes	1
1912	7	0	MOVIE	0	Drama	Mississippi Grind	No	Yes	1
3136	94	1	MOVIE	0	Drama	Unforgettable	No	Yes	3
11700	24	0	MOVIE	0	Animation	Finding Nemo	No	Yes	1
20571	58	0	MOVIE	0	Comedy	Baywatch	No	Yes	6
730	16	0	SERIES/EPISODES	0	Comedy	The Thundermans	No	Yes	1
3952	61	1	MOVIE	0	Action	War for the Planet of the Apes	No	Yes	3
30012	85	1	MOVIE	0	Comedy	Killing Gunther	No	Yes	1
3279	507	8	SERIES/EPISODES	3	Drama	Shades Of Blue	No	Yes	2
28319	122	2	MOVIE	0	Animation	Trolls	No	Yes	3
25955	68	1	SERIES/EPISODES	0	Comedy	Key & Peele	No	Yes	1
32521	109	1	MOVIE	0	Action	Along Came A pider	No	Yes	1
9988	4	0	MOVIE	0	Animation	Cars	No	Yes	2
7235	33	0	MOVIE	0	Action	Total Recall	No	Yes	4
11027	69	1	MOVIE	0	Action	Assassin's Creed	No	Yes	2
21713	15	0	MOVIE	0	Drama	Betwqeet Al- Qahira	No	Yes	1
29787	8448	140	MOVIE	0	Comedy	Superbad	No	Yes	2
17206	43	0	MOVIE	0	Animation	The Mermaid Princess	No	Yes	1
23732	96	1	MOVIE	0	Action	Assassin's Creed	No	Yes	2
10783	59	0	MOVIE	0	Comedy	Baywatch	No	Yes	6
13189	5129	85	MOVIE	0	Comedy	Bean	No	Yes	6
21122	754	12	SERIES/EPISODES	11	Animation	Dora the Explorer	No	Yes	3
33602	56	0	MOVIE	0	Animation	Trolls	No	Yes	3
5094	12	0	MOVIE	0	Animation	Moana	No	Yes	8
10926	130	2	MOVIE	0	Horror	Storage	No	Yes	1
19387	42	0	MOVIE	0	Animation	The Adventures of Petey and Friends	No	Yes	1
5542	23	0	MOVIE	0	Comedy	Moms' Night Out	No	Yes	2
18960	1349	22	SERIES/EPISODES	25	Animation	Teenage Mutant Ninja Turtles	No	Yes	2
23875	58	0	MOVIE	0	Comedy	Baywatch	No	Yes	6
19103	56	0	SERIES/EPISODES	1	Documentary	Top Tables Top Cities	No	Yes	2
20081	126	2	SERIES/EPISODES	64	Animation	Jelly Jamm  	No	Yes	1
19143	1693	28	SERIES/EPISODES	1	Drama	Power	No	Yes	1
17431	826	13	SERIES/EPISODES	11	Horror	The train	No	Yes	1
8703	8	0	MOVIE	0	Thriller	The Orphan	No	Yes	2
8417	59	0	MOVIE	0	Animation	Surf's Up : WaveMania	No	Yes	1
30849	2304	38	SERIES/EPISODES	24	Drama	Ya Reit	No	Yes	2
31379	43	0	MOVIE	0	Animation	Storks	No	Yes	1
30319	8	0	MOVIE	0	Animation	Rugrats Go Wild	No	Yes	1
24548	14	0	MOVIE	0	Action	Allied	No	Yes	1
2177	71	1	MOVIE	0	Animation	Moana	No	Yes	8
31053	28	0	MOVIE	0	Comedy	Pitch Perfect	No	Yes	5
31440	2794	46	SERIES/EPISODES	3	Animation	In the Night Garden	No	Yes	10
4808	44	0	MOVIE	0	Animation	The Boss Baby	No	Yes	10
14291	90	1	MOVIE	0	Animation	The Boss Baby	No	Yes	10
19858	25	0	MOVIE	0	Animation	The Jetsons & WWE: Robo-WrestleMania!	No	Yes	1
8520	97	1	MOVIE	0	Action	X-Men: Apocalypse	No	Yes	1
29074	6	0	MOVIE	0	Comedy	Garfield: A Tale of Two Kitties	No	Yes	1
23772	1358	22	SERIES/EPISODES	1	Animation	Kung Fu Panda: Legends Of Awesomeness	No	Yes	1
200	2371	39	MOVIE	0	Action	Killer Elite	No	Yes	3
18226	78	1	MOVIE	0	Drama	If I tay	No	Yes	3
17227	12	0	MOVIE	0	Horror	Underground	No	Yes	1
14760	22	0	MOVIE	0	Animation	The Mermaid Princess	No	Yes	1
7786	18	0	MOVIE	0	Drama	The hape of Water	No	Yes	3
22672	7479	124	MOVIE	0	Animation	The Boss Baby	No	Yes	10
25221	79	1	MOVIE	0	Biography	Sully	No	Yes	6
19919	11	0	MOVIE	0	Action	John Wick: Chapter	No	Yes	2
10131	3	0	MOVIE	0	Thriller	Phantom Halo	No	Yes	1
26750	856	14	SERIES/EPISODES	6	Animation	Shimmer And hine	No	Yes	2
20184	1381	23	SERIES/EPISODES	12	Animation	Dora And Friends: Into The City	No	Yes	2
10253	10221	170	MOVIE	0	Action	Pirates of the Caribbean: Dead Men Tell...	No	Yes	2
2015	4884	81	MOVIE	0	Animation	Scooby-Doo! The WrestleMania Mystery	No	Yes	1
3157	1240	20	SERIES/EPISODES	13	Animation	Angelo Rules	No	Yes	1
6440	1278	21	SERIES/EPISODES	6	Comedy	Friends	No	Yes	10
17839	1503	25	SERIES/EPISODES	5	Comedy	Friends	No	Yes	10
21061	41	0	MOVIE	0	Action	Pirates Of The Caribbean	No	Yes	1
31236	94	1	MOVIE	0	Animation	Trolls	No	Yes	3
18613	1248	20	SERIES/EPISODES	4	Comedy	Friends	No	Yes	10
16899	3	0	MOVIE	0	Documentary	An Inconvenient equel: Truth to Power	No	Yes	2
12272	93	1	MOVIE	0	Action	The Man with the Iron Heart	No	Yes	1
20041	2079	34	SERIES/EPISODES	4	Drama	A-Sayeda Al Oula	No	Yes	2
30807	49	0	MOVIE	0	Animation	The Boss Baby	No	Yes	10
20653	43	0	MOVIE	0	Crime	Scarface	No	Yes	5
19347	705	11	SERIES/EPISODES	1	Drama	Power	No	Yes	1
4564	117	1	MOVIE	0	Horror	A Cure for Wellness	No	Yes	3
9601	91	1	MOVIE	0	Animation	Trolls	No	Yes	3
22203	13	0	MOVIE	0	Thriller	Broken Vows	No	Yes	2
29524	13	0	SERIES/EPISODES	10	Animation	PAW Patrol	No	Yes	4
30176	2	0	MOVIE	0	Comedy	Along Came Polly	No	Yes	2
30645	455	7	MOVIE	0	Comedy	Baywatch	No	Yes	6
28544	37	0	SERIES/EPISODES	26	Animation	My Little Pony: Friendship Is Magic  	No	Yes	2
6091	96	1	MOVIE	0	Animation	Trolls	No	Yes	3
21530	100	1	MOVIE	0	Biography	The Birth of a Nation	No	Yes	7
2402	91	1	MOVIE	0	Animation	ParaNorman	No	Yes	2
14005	91	1	MOVIE	0	Animation	The Boss Baby	No	Yes	10
28096	86	1	SERIES/EPISODES	1	Drama	Tareeki  	No	Yes	1
11456	39	0	MOVIE	0	Action	Prince of Persia: The ands of Time	No	Yes	1
13923	81	1	MOVIE	0	NOT_DEFINED_IN_UMS	Dunkirk	No	Yes	1
13088	93	1	MOVIE	0	Drama	The hape of Water	No	Yes	3
17124	79	1	MOVIE	0	Animation	The Mermaid Princess	No	Yes	1
17717	30	0	SERIES/EPISODES	1	Comedy	House of Lies	No	Yes	1
19185	58	0	MOVIE	0	Comedy	Baywatch	No	Yes	6
15433	5471	91	MOVIE	0	Animation	Trolls	No	Yes	3
25017	13	0	MOVIE	0	Animation	The Boss Baby	No	Yes	10
18920	16	0	SERIES/EPISODES	1	Animation	Marcus Level  	No	Yes	1
34071	7414	123	SERIES/EPISODES	23	Action	Teen Wolf	No	Yes	10
19715	72	1	MOVIE	0	Animation	Moana	No	Yes	8
23425	55	0	MOVIE	0	Animation	Alvin and the Chipmunks	No	Yes	1
17656	3388	56	SERIES/EPISODES	7	Comedy	Friends	No	Yes	10
13271	7	0	MOVIE	0	Comedy	The Hundred-Foot Journey	No	Yes	1
1975	1769	29	SERIES/EPISODES	9	Drama	Bayna Laylatin Wa Dohaha	No	Yes	2
28157	20	0	MOVIE	0	Action	Atomic Blonde	No	Yes	1
31909	97	1	MOVIE	0	Comedy	Table	No	Yes	1
3178	91	1	MOVIE	0	Horror	Alien: Covenant	No	Yes	7
13170	20	0	MOVIE	0	Animation	The Croods	No	Yes	1
19450	1020	17	SERIES/EPISODES	1	Animation	Dora And Friends: Into The City	No	Yes	2
14373	3254	54	MOVIE	0	Action	War for the Planet of the Apes	No	Yes	3
20428	68	1	MOVIE	0	Horror	Horns	No	Yes	9
3239	80	1	MOVIE	0	Animation	Captain Underpants: The First Epic Movie	No	Yes	1
26649	14	0	MOVIE	0	Action	Jack Reacher: Never Go Back	No	Yes	2
5788	5847	97	MOVIE	0	Animation	The Boss Baby	No	Yes	10
11090	1893	31	MOVIE	0	Comedy	50 First Dates	No	Yes	2
28586	5	0	MOVIE	0	Animation	Dragon Ball Z: Resurrection F	No	Yes	1
26241	18	0	SERIES/EPISODES	1	Comedy	Dalaa Banat  	Yes	No	1
8459	5508	91	MOVIE	0	Comedy	Along Came Polly	No	Yes	2
26384	101	1	SERIES/EPISODES	7	Horror	The Walking Dead	Yes	No	10
11559	24	0	MOVIE	0	Animation	Dragon Ball Z: Resurrection F	No	Yes	1
13843	78	1	MOVIE	0	Biography	Sully	No	Yes	6
27587	6078	101	MOVIE	0	Action	Mechanic: Resurrection	No	Yes	3
29789	4	0	MOVIE	0	Animation	The Adventures of Petey and Friends	No	Yes	1
5054	6400	106	MOVIE	0	Action	47 Ronin	No	Yes	4
18777	79	1	MOVIE	0	Drama	Secretariat	No	Yes	1
24569	58	0	MOVIE	0	Comedy	Baywatch	No	Yes	6
11170	91	1	MOVIE	0	Animation	The Boss Baby	No	Yes	10
4890	91	1	MOVIE	0	Animation	The Boss Baby	No	Yes	10
21877	2	0	MOVIE	0	Action	Star Wars: The Last Jedi	No	Yes	1
8236	83	1	MOVIE	0	Action	Trespass Against Us	No	Yes	1
13639	83	1	MOVIE	0	Drama	Murder on the Orient Express	No	Yes	2
25711	130	2	MOVIE	0	Family	Stardust	Yes	No	1
11008	88	1	MOVIE	0	Comedy	Snatched	No	Yes	1
25976	4	0	MOVIE	0	Comedy	Date Movie	No	Yes	1
18838	23	0	MOVIE	0	Action	Kingsman: The Golden Circle	No	Yes	1
11315	35	0	MOVIE	0	Animation	The Jetsons & WWE: Robo-WrestleMania!	No	Yes	1
23427	16	0	MOVIE	0	Horror	Annabelle: Creation	No	Yes	7
10335	97	1	MOVIE	0	Documentary	An Inconvenient equel: Truth to Power	No	Yes	2
15740	1044	17	MOVIE	0	Thriller	Piranha DD	No	Yes	1
8173	2413	40	SERIES/EPISODES	11	Horror	The Walking Dead	No	Yes	10
5828	57	0	MOVIE	0	Horror	The Devil's Candy	No	Yes	1
3933	4	0	MOVIE	0	Biography	Genius	No	Yes	1
16779	91	1	MOVIE	0	Animation	The Boss Baby	No	Yes	10
8358	2	0	MOVIE	0	Horror	Rings	No	Yes	10
15168	13	0	MOVIE	0	Comedy	Baywatch	No	Yes	6
2322	7557	125	MOVIE	0	Action	Mechanic: Resurrection	No	Yes	3
25732	59	0	MOVIE	0	Comedy	Baywatch	No	Yes	6
19084	70	1	MOVIE	0	Horror	Vipers	No	Yes	2
10865	775	12	SERIES/EPISODES	18	Animation	Dinofroz  	No	Yes	2
26201	259	4	MOVIE	0	Animation	Trolls	No	Yes	3
179	26	0	MOVIE	0	Action	Harry Potter - Part	No	Yes	1
16005	2	0	MOVIE	0	Action	Kidnap	No	Yes	2
32033	95	1	MOVIE	0	Animation	Cars	No	Yes	2
12783	73	1	MOVIE	0	Action	Superman Returns	No	Yes	1
8684	26	0	MOVIE	0	Drama	100 treets	No	Yes	1
13313	68834	1147	SERIES/EPISODES	2	Drama	Homeland	Yes	No	3
33848	27	0	SERIES/EPISODES	2	Horror	The Walking Dead	Yes	No	10
24121	94	1	MOVIE	0	Animation	Ferdinand	No	Yes	3
10438	91	1	MOVIE	0	Animation	The Boss Baby	No	Yes	10
32439	62	1	MOVIE	0	Drama	The Dressmaker	No	Yes	1
31890	46	0	MOVIE	0	Animation	Antz	No	Yes	1
23652	26	0	MOVIE	0	NOT_DEFINED_IN_UMS	Dunkirk	No	Yes	1
10234	3328	55	MOVIE	0	Action	Seventh on	No	Yes	2
25589	1325	22	SERIES/EPISODES	20	Animation	Littlest Pet hop  	No	Yes	1
22428	90	1	MOVIE	0	Comedy	Snatched	No	Yes	1
22571	1925	32	SERIES/EPISODES	2	Drama	Fee Amal  	No	Yes	1
31339	75	1	MOVIE	0	Animation	The Mermaid Princess	No	Yes	1
15576	96	1	MOVIE	0	Comedy	Table	No	Yes	1
31135	2397	39	SERIES/EPISODES	9	Drama	Beauty and the Beast	No	Yes	3
24590	12	0	MOVIE	0	Drama	My Cousin Rachel	No	Yes	1
17799	1652	27	SERIES/EPISODES	7	Comedy	Kalam A-Nas	No	Yes	4
25791	100	1	MOVIE	0	Biography	The Birth of a Nation	No	Yes	7
18676	38	0	MOVIE	0	Animation	Ferdinand	No	Yes	3
5544	8	0	MOVIE	0	Comedy	Baywatch	No	Yes	6
26548	91	1	MOVIE	0	Animation	The Boss Baby	No	Yes	10
12396	71	1	MOVIE	0	Animation	Pocahontas	No	Yes	1
15719	47	0	MOVIE	0	Animation	The Mermaid Princess	No	Yes	1
8337	2417	40	SERIES/EPISODES	5	Action	Teen Wolf	No	Yes	10
1262	6	0	MOVIE	0	Drama	Collateral Beauty	No	Yes	4
20817	105	1	MOVIE	0	Family	The BFG	No	Yes	10
25793	87	1	MOVIE	0	Animation	Coco	No	Yes	2
31625	4	0	MOVIE	0	Animation	Storks	No	Yes	1
4341	65	1	MOVIE	0	Animation	Moana	No	Yes	8
20613	1526	25	MOVIE	0	Comedy	White Chicks	No	Yes	6
7563	4	0	MOVIE	0	Comedy	Tammy	No	Yes	1
2404	91	1	MOVIE	0	Animation	The Boss Baby	No	Yes	10
17820	240	4	MOVIE	0	Animation	Moana	No	Yes	8
14985	1343	22	SERIES/EPISODES	4	Animation	SpongeBob quarePants	No	Yes	2
6421	73	1	MOVIE	0	Action	Assassin's Creed	No	Yes	2
7828	2494	41	SERIES/EPISODES	5	Drama	Heroes	No	Yes	5
21204	18	0	MOVIE	0	Action	Once Upon A Time In Mexico	No	Yes	2
4606	1733	28	SERIES/EPISODES	4	Action	Supergirl	No	Yes	4
23103	30	0	MOVIE	0	Animation	The Mermaid Princess	No	Yes	1
18554	73	1	MOVIE	0	Horror	Rings	No	Yes	10
22245	3186	53	SERIES/EPISODES	6	Drama	Madrasat Al Hob	No	Yes	3
27751	41	0	MOVIE	0	Drama	The Girl on the Train	No	Yes	3
7155	73	1	MOVIE	0	Drama	11.6	No	Yes	2
32626	15	0	MOVIE	0	Animation	The Little Vampire	No	Yes	1
27528	231	3	MOVIE	0	Action	Spider-Man: Homecoming	No	Yes	2
33095	1236	20	SERIES/EPISODES	19	Animation	Slugterra	No	Yes	2
8278	1617	26	SERIES/EPISODES	5	Drama	Heroes	No	Yes	5
22449	58	0	MOVIE	0	Comedy	Bean	No	Yes	6
2711	37	0	MOVIE	0	Horror	Inside	No	Yes	4
30687	94	1	MOVIE	0	Drama	The hape of Water	No	Yes	3
22430	6	0	MOVIE	0	Animation	Coco	No	Yes	2
25917	11	0	SERIES/EPISODES	1	Drama	Laqet Rohey	Yes	No	3
9216	18	0	SERIES/EPISODES	1	Horror	American Horror tory	No	Yes	2
33114	8	0	MOVIE	0	Animation	Trolls	No	Yes	3
22447	7	0	MOVIE	0	Horror	Inside	No	Yes	4
29404	2509	41	SERIES/EPISODES	3	Thriller	Mr. Robot	No	Yes	3
28935	91	1	MOVIE	0	Action	The Accountant	No	Yes	2
9685	59083	984	MOVIE	0	Action	Spider-Man: Homecoming	No	Yes	2
33360	84	1	MOVIE	0	Animation	Surf's Up : WaveMania	No	Yes	1
26466	88	1	MOVIE	0	Drama	100 treets	No	Yes	1
4118	64	1	MOVIE	0	Animation	The Adventures of Petey and Friends	No	Yes	1
31280	44	0	MOVIE	0	Animation	Tad the Lost Explorer	No	Yes	1
20819	38	0	MOVIE	0	Action	CHIPS	No	Yes	1
29200	43	0	MOVIE	0	Horror	Friday The Th Part VI	No	Yes	1
16659	90	1	MOVIE	0	Animation	The Boss Baby	No	Yes	10
16657	2223	37	SERIES/EPISODES	19	Drama	Caramel  	No	Yes	3
18941	1353	22	SERIES/EPISODES	8	Animation	SpongeBob quarePants	No	Yes	2
160	357	5	SERIES/EPISODES	1	Animation	Mumuhug	No	Yes	1
10154	1662	27	SERIES/EPISODES	1	Horror	Bates Motel	No	Yes	1
1569	86	1	MOVIE	0	Animation	Coco	No	Yes	2
21288	91	1	MOVIE	0	Animation	The Boss Baby	No	Yes	10
26651	413	6	SERIES/EPISODES	4	Animation	Jelly Jamm  	No	Yes	1
30342	9	0	MOVIE	0	Animation	The Nut Job : Nutty by Nature	No	Yes	1
21084	6	0	MOVIE	0	Action	War for the Planet of the Apes	No	Yes	3
3241	23	0	MOVIE	0	Drama	Billy Lynn’s Long Halftime Walk	No	Yes	1
1607	24	0	SERIES/EPISODES	13	Horror	The Walking Dead	No	Yes	10
13641	42	0	MOVIE	0	Action	Logan	No	Yes	1
18800	84	1	MOVIE	0	Biography	Hidden Figures	No	Yes	3
13437	15	0	MOVIE	0	Action	The Dark Tower	No	Yes	1
8074	3	0	MOVIE	0	Action	Cop Out	No	Yes	1
16514	37	0	MOVIE	0	Horror	Rings	No	Yes	10
2772	50	0	MOVIE	0	Action	Prince of Persia: The ands of Time	No	Yes	1
8543	4	0	MOVIE	0	Action	Master and Commander: The Far ide ...	No	Yes	1
25244	94	1	MOVIE	0	Horror	The Windmill Massacre	No	Yes	1
19208	29	0	MOVIE	0	Comedy	Baywatch	No	Yes	6
24163	42	0	MOVIE	0	Animation	The Nut Job : Nutty by Nature	No	Yes	1
24102	92	1	MOVIE	0	Comedy	Alexander and the Terrible  Horrible  No G	No	Yes	1
6463	1432	23	SERIES/EPISODES	4	Animation	Caillou	No	Yes	1
28262	9	0	MOVIE	0	Animation	The Mermaid Princess	No	Yes	1
427	12	0	MOVIE	0	Drama	Arrival	No	Yes	2
24775	33	0	MOVIE	0	Animation	Trolls	No	Yes	3
19881	16	0	MOVIE	0	Animation	Howard Lovecraft and the Frozen Kingdom	No	Yes	1
16190	23	0	MOVIE	0	Horror	Long Weekend	No	Yes	3
32014	18	0	MOVIE	0	Animation	Dragon Ball Z: Resurrection F	No	Yes	1
31341	7	0	SERIES/EPISODES	15	Action	Vikings	No	Yes	7
32422	51	0	MOVIE	0	Animation	Alvin and the Chipmunks	No	Yes	1
29873	1195	19	SERIES/EPISODES	18	Drama	Caramel  	No	Yes	3
19412	89	1	MOVIE	0	Thriller	Broken Vows	No	Yes	2
19004	14	0	MOVIE	0	Action	The Hunter's Prayer	No	Yes	1
16129	25	0	MOVIE	0	NOT_DEFINED_IN_UMS	Dunkirk	No	Yes	1
33417	6047	100	MOVIE	0	Animation	Coco	No	Yes	2
14579	33	0	MOVIE	0	Comedy	Youm Maloosh Lazma	No	Yes	10
13029	1164	19	SERIES/EPISODES	1	Animation	Wolverine and the X Men  	No	Yes	1
6055	7497	124	MOVIE	0	Action	The Legend of Tarzan	No	Yes	1
14049	99	1	MOVIE	0	Biography	The Birth of a Nation	No	Yes	7
26712	86	1	MOVIE	0	Horror	Inside	No	Yes	4
30750	1282	21	MOVIE	0	Action	The Maze Runner	No	Yes	1
19147	703	11	SERIES/EPISODES	1	Animation	The Penguins of Madagascar	No	Yes	1
9420	114	1	MOVIE	0	Comedy	Meet the Parents	No	Yes	1
17597	23	0	MOVIE	0	Comedy	Daddy Day Camp	No	Yes	2
25652	95	1	MOVIE	0	Animation	The Boss Baby	No	Yes	10
9889	114	1	MOVIE	0	Animation	Dragon Ball Z: Resurrection F	No	Yes	1
19616	1363	22	SERIES/EPISODES	5	Animation	Kung Fu Panda: Legends Of Awesomeness	Yes	No	1
11357	18	0	SERIES/EPISODES	1	Action	Zoo	No	Yes	3
15660	114	1	MOVIE	0	Horror	Rings	No	Yes	10
2446	96	1	MOVIE	0	Drama	Unforgettable	No	Yes	3
7197	6	0	MOVIE	0	Comedy	Baywatch	No	Yes	6
32830	94	1	MOVIE	0	Drama	The hape of Water	No	Yes	3
6646	94	1	MOVIE	0	Drama	Unforgettable	No	Yes	3
30546	28	0	MOVIE	0	Animation	Trolls	No	Yes	3
28588	37	0	MOVIE	0	Animation	Storks	No	Yes	1
26325	594	9	SERIES/EPISODES	12	Drama	24	Yes	No	6
3975	1262	21	SERIES/EPISODES	21	Comedy	Friends	Yes	No	10
10684	65	1	MOVIE	0	Animation	The Adventures of Petey and Friends	No	Yes	1
27732	92	1	MOVIE	0	Animation	Smurfs: The Lost Village	No	Yes	1
11092	150	2	SERIES/EPISODES	4	Drama	24: Live Another Day	No	Yes	1
25938	1609	26	MOVIE	0	Action	Blitz	No	Yes	3
28956	70	1	MOVIE	0	Comedy	First Kiss	No	Yes	1
15578	91	1	MOVIE	0	Animation	The Boss Baby	No	Yes	10
14110	3	0	MOVIE	0	Animation	Howard Lovecraft and the Frozen Kingdom	No	Yes	1
31974	1166	19	MOVIE	0	Animation	Moana	No	Yes	8
29425	87	1	MOVIE	0	Horror	Inside	No	Yes	4
32218	26	0	MOVIE	0	Animation	Trolls	No	Yes	3
14987	6	0	MOVIE	0	Animation	Storks	No	Yes	1
5525	10	0	MOVIE	0	Action	Geostorm	No	Yes	3
15721	1394	23	SERIES/EPISODES	7	Animation	Teenage Mutant Ninja Turtles	No	Yes	2
12724	92	1	MOVIE	0	Drama	Despite the Falling now	No	Yes	1
7157	1345	22	SERIES/EPISODES	10	Animation	The Penguins of Madagascar	No	Yes	1
29894	94	1	MOVIE	0	Animation	Trolls	No	Yes	3
6198	6026	100	MOVIE	0	Action	Blue treak	No	Yes	1
13193	3000	50	SERIES/EPISODES	7	Horror	The Walking Dead	No	Yes	10
24327	96	1	MOVIE	0	Action	Assassin's Creed	No	Yes	2
32443	5058	84	MOVIE	0	Drama	Aftermath	No	Yes	2
27242	93	1	MOVIE	0	Drama	Aftermath	No	Yes	2
1590	4911	81	MOVIE	0	Comedy	Daddy Day Camp	No	Yes	2
2059	4	0	MOVIE	0	Animation	Surf's Up : WaveMania	No	Yes	1
22247	91	1	MOVIE	0	Thriller	Broken Vows	No	Yes	2
30363	77	1	MOVIE	0	Horror	Inside	No	Yes	4
33156	8	0	MOVIE	0	Animation	The Jetsons & WWE: Robo-WrestleMania!	No	Yes	1
22716	27	0	MOVIE	0	Action	The Marine : Moving Target	No	Yes	1
13662	87	1	MOVIE	0	Comedy	Going in tyle	No	Yes	3
1283	6	0	MOVIE	0	Thriller	Synchronicity	No	Yes	1
31301	34	0	MOVIE	0	Comedy	Baywatch	No	Yes	6
16680	1760	29	MOVIE	0	Animation	Tom Little and the Magic Mirror	No	Yes	1
6219	20	0	SERIES/EPISODES	0	Drama	The Tudors	No	Yes	1
14600	96	1	MOVIE	0	Comedy	Table	No	Yes	1
6015	80	1	MOVIE	0	Animation	Coco	No	Yes	2
15273	51	0	SERIES/EPISODES	1	Drama	12 Monkeys	No	Yes	2
27814	34	0	MOVIE	0	Animation	Trolls	No	Yes	3
23858	64	1	MOVIE	0	Animation	The Adventures of Petey and Friends	No	Yes	1
20371	86	1	MOVIE	0	Thriller	Saw	No	Yes	2
14804	85	1	MOVIE	0	Animation	Surf's Up : WaveMania	No	Yes	1
2976	34	0	MOVIE	0	Biography	Marshall	No	Yes	1
6688	16	0	MOVIE	0	Comedy	Snatched	No	Yes	1
23185	1198	19	SERIES/EPISODES	1	Thriller	Hannibal	No	Yes	3
33850	50	0	MOVIE	0	Drama	Unforgettable	No	Yes	3
23429	5533	92	MOVIE	0	Comedy	Anger Management	No	Yes	1
19229	24	0	MOVIE	0	Horror	The Void	No	Yes	1
2202	3499	58	SERIES/EPISODES	4	Horror	The Walking Dead	Yes	No	10
15538	1304	21	SERIES/EPISODES	3	Animation	Blaze And The Monster Machines	No	Yes	4
10787	2346	39	SERIES/EPISODES	8	Action	Justified	Yes	No	1
33055	47	0	MOVIE	0	Drama	Billy Lynn’s Long Halftime Walk	No	Yes	1
10909	53	0	MOVIE	0	Action	Once Upon A Time In Mexico	No	Yes	2
17149	2418	40	SERIES/EPISODES	9	Action	Vikings	No	Yes	7
2997	203	3	MOVIE	0	Horror	The Howling Reborn	No	Yes	1
24939	75	1	SERIES/EPISODES	3	Drama	Quantico	No	Yes	2
16354	746	12	SERIES/EPISODES	21	Animation	Marcus Level  	No	Yes	1
31566	96	1	MOVIE	0	Action	Assassin's Creed	No	Yes	2
5220	36	0	MOVIE	0	Action	Free Fire	No	Yes	1
13458	70	1	MOVIE	0	Horror	Annabelle	No	Yes	3
122	45	0	MOVIE	0	Comedy	Baby  Baby  Baby	No	Yes	1
25408	32	0	MOVIE	0	Comedy	Youm Maloosh Lazma	No	Yes	10
23654	14	0	MOVIE	0	Action	The Hunter's Prayer	No	Yes	1
30975	79	1	MOVIE	0	Action	Sleight	No	Yes	1
7035	88	1	MOVIE	0	Drama	100 treets	No	Yes	1
20636	9	0	MOVIE	0	Action	Empire tate	No	Yes	1
17292	2408	40	SERIES/EPISODES	9	Action	Teen Wolf	No	Yes	10
4669	100	1	MOVIE	0	Drama	Cinderella	No	Yes	1
22859	447	7	MOVIE	0	Action	30 Minutes Or Less	No	Yes	1
15620	85	1	MOVIE	0	Biography	The Greatest howman	No	Yes	2
11725	13	0	MOVIE	0	Comedy	Table	No	Yes	1
26754	15	0	MOVIE	0	Animation	The Jetsons & WWE: Robo-WrestleMania!	No	Yes	1
4404	7	0	MOVIE	0	Action	The Hunter's Prayer	No	Yes	1
10236	77	1	MOVIE	0	Animation	Toy tory	No	Yes	1
1182	94	1	MOVIE	0	Thriller	Identity	No	Yes	2
20310	3	0	MOVIE	0	Drama	Unforgettable	No	Yes	3
28895	2222	37	SERIES/EPISODES	5	Drama	The Black Envelope  	No	Yes	1
25795	17	0	SERIES/EPISODES	1	Animation	Littlest Pet hop  	No	Yes	1
13071	51	0	MOVIE	0	Biography	The Greatest howman	No	Yes	2
21187	90	1	MOVIE	0	Animation	The Boss Baby	No	Yes	10
22512	4	0	SERIES/EPISODES	3	Drama	House	No	Yes	10
9176	3	0	MOVIE	0	Biography	Hands of tone	No	Yes	1
2141	99	1	MOVIE	0	Horror	Rings	No	Yes	10
21860	73	1	MOVIE	0	Animation	The Mermaid Princess	No	Yes	1
4486	18	0	MOVIE	0	Action	Geostorm	No	Yes	3
16293	121	2	MOVIE	0	Animation	Trolls	No	Yes	3
4078	68	1	MOVIE	0	Comedy	No Reservations	No	Yes	1
18638	335	5	MOVIE	0	Action	The November Man	No	Yes	4
7504	34	0	MOVIE	0	Drama	Collateral Beauty	No	Yes	4
1529	99	1	MOVIE	0	Comedy	Table	No	Yes	1
10726	81	1	MOVIE	0	NOT_DEFINED_IN_UMS	Dunkirk	No	Yes	1
10522	18	0	MOVIE	0	Comedy	50 First Dates	Yes	No	2
24878	28	0	MOVIE	0	Animation	Mission Kathmandu	No	Yes	1
18230	17	0	MOVIE	0	Action	Seventh on	No	Yes	2
21656	18	0	MOVIE	0	Action	War for the Planet of the Apes	No	Yes	3
27284	27	0	MOVIE	0	Thriller	Broken Vows	No	Yes	2
16150	241	4	SERIES/EPISODES	25	Animation	PAW Patrol	No	Yes	4
8177	1455	24	SERIES/EPISODES	30	Comedy	Kalam A-Nas	No	Yes	4
13744	112	1	MOVIE	0	Drama	The Girl on the Train	No	Yes	3
27896	234	3	MOVIE	0	Family	Beauty and the Beast	No	Yes	3
32056	56	0	MOVIE	0	Animation	Moana	No	Yes	8
33320	140	2	MOVIE	0	Action	Elephant White	No	Yes	1
31118	100	1	MOVIE	0	Action	Spider-Man: Homecoming	No	Yes	2
12337	17339	288	MOVIE	0	Comedy	Puerto Ricans in Paris	No	Yes	1
1203	9	0	MOVIE	0	Comedy	Baywatch	No	Yes	6
2467	45	0	MOVIE	0	NOT_DEFINED_IN_UMS	Dunkirk	No	Yes	1
8442	9	0	MOVIE	0	Biography	Sully	No	Yes	6
2345	1319	21	SERIES/EPISODES	1	Comedy	Friends	Yes	No	10
22064	50	0	MOVIE	0	Animation	The Mermaid Princess	No	Yes	1
22655	75	1	MOVIE	0	Biography	Sully	No	Yes	6
11460	3	0	MOVIE	0	Horror	Inside	No	Yes	4
15355	376	6	MOVIE	0	Documentary	Ronaldo	No	Yes	10
34197	105	1	MOVIE	0	Drama	Jobs	No	Yes	3
14213	98	1	MOVIE	0	Documentary	An Inconvenient equel: Truth to Power	No	Yes	2
8646	38551	642	MOVIE	0	Drama	Three Billboards Outside Ebbing  Missouri	Yes	No	1
29507	8	0	MOVIE	0	Horror	Inside	No	Yes	4
14539	35	0	SERIES/EPISODES	9	Crime	Damages	No	Yes	4
14417	45	0	MOVIE	0	Drama	Collateral Beauty	No	Yes	4
8972	94	1	MOVIE	0	Comedy	Why Him	No	Yes	2
34136	142	2	MOVIE	0	Action	Prince of Persia: The ands of Time	No	Yes	1
26693	831	13	SERIES/EPISODES	31	Animation	Puppy In My Pocket  	No	Yes	1
1407	598	9	SERIES/EPISODES	17	Animation	Fireman am	Yes	No	1
5363	38	0	MOVIE	0	Animation	Howard Lovecraft and the Frozen Kingdom	No	Yes	1
30180	254	4	SERIES/EPISODES	1	Comedy	Friends	No	Yes	10
4894	192	3	MOVIE	0	Animation	The Boss Baby	No	Yes	10
15090	81	1	MOVIE	0	NOT_DEFINED_IN_UMS	Dunkirk	No	Yes	1
938	94	1	MOVIE	0	Action	Into the torm	No	Yes	1
15559	59	0	MOVIE	0	Family	Max : White House Hero	No	Yes	1
23206	93	1	MOVIE	0	Animation	Trolls	No	Yes	3
13010	112	1	MOVIE	0	Action	The Nice Guys	No	Yes	1
1672	6644	110	MOVIE	0	Comedy	The Incredibles	No	Yes	2
20657	7	0	MOVIE	0	Comedy	Table	No	Yes	1
9054	82	1	MOVIE	0	Drama	The ense of an Ending	No	Yes	1
18964	63	1	MOVIE	0	Comedy	Baywatch	No	Yes	6
10257	59	0	MOVIE	0	Comedy	Baywatch	No	Yes	6
29242	30	0	MOVIE	0	Action	Smokin' Aces : Assassins' Ball	No	Yes	1
4282	15	0	MOVIE	0	Animation	Storks	No	Yes	1
6301	807	13	SERIES/EPISODES	14	Animation	Min Qesas As-Saliheen	No	Yes	1
32260	34	0	MOVIE	0	Drama	Betwqeet Al- Qahira	No	Yes	1
734	11	0	MOVIE	0	Animation	Surf's Up	No	Yes	1
28100	1400	23	SERIES/EPISODES	6	Drama	Chello  	No	Yes	1
7443	91	1	MOVIE	0	Animation	The Boss Baby	No	Yes	10
1264	86	1	MOVIE	0	Comedy	Going in tyle	No	Yes	3
7912	676	11	SERIES/EPISODES	71	Animation	Jelly Jamm  	No	Yes	1
14621	86	1	MOVIE	0	Thriller	Angels and Demons	No	Yes	1
27631	5	0	MOVIE	0	Comedy	Baywatch	No	Yes	6
17170	190	3	MOVIE	0	Animation	Ferdinand	No	Yes	3
29711	2	0	MOVIE	0	Family	Beauty and the Beast	No	Yes	3
14152	886	14	MOVIE	0	Comedy	Here Comes The Boom	No	Yes	5
6505	81	1	MOVIE	0	Animation	Tad the Lost Explorer	No	Yes	1
19719	92	1	MOVIE	0	Animation	Trolls	No	Yes	3
3018	50	0	MOVIE	0	Comedy	E-Dounia Maqlouba	No	Yes	1
9237	63	1	MOVIE	0	Comedy	Miss Conception/Buy Borrow teal	No	Yes	1
12602	30	0	MOVIE	0	Animation	Surf's Up : WaveMania	No	Yes	1
16028	9	0	MOVIE	0	Horror	Inside	No	Yes	4
26138	31	0	MOVIE	0	Comedy	Youm Maloosh Lazma	No	Yes	10
6314	48	0	MOVIE	0	Animation	Trolls	No	Yes	3
7418	96	1	MOVIE	0	Horror	Alien: Covenant	No	Yes	7
19307	68	1	MOVIE	0	Animation	The Boss Baby	No	Yes	10
21305	23	0	MOVIE	0	Drama	My Cousin Rachel	No	Yes	1
7416	9	0	MOVIE	0	Animation	Trolls	No	Yes	3
20775	21	0	MOVIE	0	Action	Seventh on	No	Yes	2
9416	1112	18	SERIES/EPISODES	1	Comedy	Friends	No	Yes	10
6358	27	0	MOVIE	0	Animation	Ferdinand	No	Yes	3
11660	46	0	MOVIE	0	Biography	Almost Famous	No	Yes	4
6215	6288	104	MOVIE	0	Action	Baby Driver	No	Yes	2
9784	50	0	MOVIE	0	Comedy	Going in tyle	No	Yes	3
1035	80	1	MOVIE	0	Action	Deja Vu	No	Yes	1
18287	36	0	MOVIE	0	Animation	Tad the Lost Explorer	No	Yes	1
31112	64	1	MOVIE	0	Animation	The Boss Baby	No	Yes	10
33846	73	1	MOVIE	0	Animation	The Mermaid Princess	No	Yes	1
3012	16	0	MOVIE	0	Animation	The Boss Baby	No	Yes	10
29665	101	1	MOVIE	0	Biography	The Birth of a Nation	No	Yes	7
25343	35	0	MOVIE	0	Comedy	Zombieland	No	Yes	2
26811	12	0	MOVIE	0	Animation	The Adventures of Petey and Friends	No	Yes	1
3115	27	0	MOVIE	0	Animation	Coco	No	Yes	2
34050	101	1	MOVIE	0	Drama	Please tand By	No	Yes	1
20142	4	0	SERIES/EPISODES	8	Drama	House	No	Yes	10
16880	84	1	MOVIE	0	Animation	Surf's Up : WaveMania	No	Yes	1
19694	57	0	MOVIE	0	Crime	Scarface	No	Yes	5
14657	100	1	MOVIE	0	Animation	The Jetsons & WWE: Robo-WrestleMania!	No	Yes	1
21917	9	0	MOVIE	0	Animation	Dragon Ball Z: Resurrection F	No	Yes	1
28952	14	0	MOVIE	0	Horror	Alien: Covenant	No	Yes	7
27423	2	0	MOVIE	0	Action	Oblivion	No	Yes	4
25404	26	0	SERIES/EPISODES	2	Drama	Doctorah Fi Al Hob	No	Yes	1
14270	7	0	MOVIE	0	Action	London Heist	No	Yes	1
17696	74	1	MOVIE	0	Biography	Rebel in the Rye	No	Yes	1
24323	1369	22	SERIES/EPISODES	1	Animation	Dora the Explorer	No	Yes	3
13067	60	1	MOVIE	0	Action	American niper	No	Yes	1
16245	90	1	MOVIE	0	Animation	The Boss Baby	No	Yes	10
15269	45	0	MOVIE	0	Horror	Prom Night	No	Yes	1
7092	67	1	MOVIE	0	Thriller	The Maid's Room	No	Yes	1
3727	34	0	MOVIE	0	Biography	The Birth of a Nation	No	Yes	7
25873	33	0	MOVIE	0	Comedy	Elvis & Nixon	No	Yes	1
21692	92	1	MOVIE	0	Animation	The Boss Baby	No	Yes	10
5378	3850	64	MOVIE	0	Action	The Amazing pider-Man	No	Yes	10
1933	81	1	MOVIE	0	Animation	Lego cooby-Doo! Blowout Beach Bash	No	Yes	1
5010	710	11	MOVIE	0	Comedy	Here Comes The Boom	No	Yes	5
5073	92	1	MOVIE	0	Animation	Ferdinand	No	Yes	3
11782	4	0	MOVIE	0	Drama	Collateral Beauty	No	Yes	4
33785	91	1	MOVIE	0	Animation	The Boss Baby	No	Yes	10
26769	88	1	MOVIE	0	Comedy	Bad Boys	Yes	No	7
24405	110	1	MOVIE	0	Animation	Frozen	No	Yes	1
934	96	1	MOVIE	0	Action	War for the Planet of the Apes	No	Yes	3
23324	3974	66	MOVIE	0	Comedy	White Chicks	No	Yes	6
3094	91	1	MOVIE	0	Animation	Ferdinand	No	Yes	3
1912	98	1	MOVIE	0	Documentary	An Inconvenient equel: Truth to Power	No	Yes	2
3136	95	1	MOVIE	0	Drama	Unforgettable	No	Yes	3
11700	89	1	MOVIE	0	Action	Sleepless	No	Yes	1
20571	69	1	MOVIE	0	Action	Guardians Of The Tomb	No	Yes	1
730	95	1	SERIES/EPISODES	26	Animation	PAW Patrol	No	Yes	4
3952	3	0	MOVIE	0	Documentary	An Inconvenient equel: Truth to Power	No	Yes	2
30012	82	1	MOVIE	0	Action	Instant Death	No	Yes	1
3279	3556	59	SERIES/EPISODES	13	Action	Blindspot	No	Yes	6
28319	93	1	MOVIE	0	Animation	Trolls	No	Yes	3
25955	118	1	MOVIE	0	Animation	Cars	No	Yes	2
6520	44	0	MOVIE	0	Action	Mortdecai	No	Yes	1
32521	91	1	MOVIE	0	Thriller	Broken Vows	No	Yes	2
9988	32	0	MOVIE	0	Family	Newsies: the Broadway Musical	No	Yes	1
7235	142	2	MOVIE	0	Animation	Ice Age: Continental Drift	No	Yes	1
11027	65	1	MOVIE	0	Action	Prince of Persia: The ands of Time	No	Yes	1
21713	180	3	MOVIE	0	Comedy	Among Ravens	No	Yes	1
29787	91	1	MOVIE	0	Comedy	The Cable Guy	No	Yes	1
23732	53	0	MOVIE	0	Animation	DCU: on of Batman	No	Yes	1
10783	87	1	MOVIE	0	Comedy	Going in tyle	No	Yes	3
21263	42	0	MOVIE	0	Animation	The murfs	No	Yes	6
13189	11	0	MOVIE	0	Comedy	Fanboys	No	Yes	1
21122	511	8	SERIES/EPISODES	1	Animation	Dora the Explorer	No	Yes	3
33602	48	0	MOVIE	0	Action	Assassin's Creed	No	Yes	2
5094	1284	21	SERIES/EPISODES	2	Animation	Littlest Pet hop	No	Yes	1
10926	133	2	SERIES/EPISODES	3	Drama	Thurayya  	No	Yes	1
19387	4	0	MOVIE	0	Animation	The Adventures of Petey and Friends	No	Yes	1
5542	878	14	SERIES/EPISODES	15	Animation	Slugterra	No	Yes	2
18960	1386	23	SERIES/EPISODES	19	Animation	PAW Patrol	No	Yes	4
23875	92	1	MOVIE	0	Animation	Ferdinand	No	Yes	3
19103	31	0	SERIES/EPISODES	0	Family	Harry	No	Yes	1
20081	51	0	MOVIE	0	Animation	Hotel Transylvania	No	Yes	2
19143	16731	278	MOVIE	0	Action	The Expendables	No	Yes	8
32990	7	0	MOVIE	0	Action	Morning tar	No	Yes	1
17431	1257	20	SERIES/EPISODES	2	Animation	Littlest Pet hop	No	Yes	1
8703	23	0	MOVIE	0	Horror	The Devil Inside	No	Yes	1
8417	91	1	MOVIE	0	Thriller	Broken Vows	No	Yes	2
30849	2704	45	SERIES/EPISODES	15	Drama	Grey's Anatomy	No	Yes	6
31379	53	0	MOVIE	0	Comedy	Why Him	No	Yes	2
30319	90	1	MOVIE	0	Action	Thor: Ragnarok	No	Yes	1
24548	4	0	MOVIE	0	Action	Assassin's Creed	No	Yes	2
2177	98	1	MOVIE	0	Horror	Inside	No	Yes	4
31053	2928	48	MOVIE	0	Comedy	Pitch Perfect	No	Yes	5
31440	1658	27	SERIES/EPISODES	6	Animation	In the Night Garden	No	Yes	10
4808	92	1	MOVIE	0	Animation	Ferdinand	No	Yes	3
14291	89	1	MOVIE	0	Animation	The Boss Baby	No	Yes	10
30788	62	1	MOVIE	0	Horror	Rings	No	Yes	10
8520	5554	92	MOVIE	0	Animation	The Lego Movie	No	Yes	2
29074	92	1	MOVIE	0	Animation	Ferdinand	No	Yes	3
23772	38	0	MOVIE	0	Action	47 Ronin	No	Yes	4
200	29	0	MOVIE	0	Action	The Marine : Battleground	No	Yes	1
18226	112	1	MOVIE	0	Horror	Carrie	No	Yes	6
17227	3	0	MOVIE	0	Horror	Shutter	No	Yes	1
14760	2	0	MOVIE	0	Animation	Moana	No	Yes	8
7786	7	0	MOVIE	0	Biography	The Greatest howman	No	Yes	2
22672	65	1	MOVIE	0	Horror	Extraterrestrial	No	Yes	3
25221	10	0	MOVIE	0	Action	The Accountant	No	Yes	2
19919	99	1	MOVIE	0	Horror	Rings	No	Yes	10
10131	10	0	MOVIE	0	Thriller	Phantom Halo	No	Yes	1
26750	1244	20	SERIES/EPISODES	11	Comedy	Melissa & Joey	No	Yes	1
20184	1383	23	SERIES/EPISODES	8	Animation	Dora And Friends: Into The City	No	Yes	2
10253	36	0	MOVIE	0	Drama	Fences	No	Yes	2
2015	85	1	SERIES/EPISODES	7	Action	Blindspot	No	Yes	6
3157	27	0	SERIES/EPISODES	20	Animation	Angelo Rules	No	Yes	1
6440	1312	21	SERIES/EPISODES	4	Comedy	Friends	No	Yes	10
17839	17	0	SERIES/EPISODES	6	Comedy	Franklin and Bash	No	Yes	1
21061	46	0	MOVIE	0	Action	Rogue One: A tar Wars tory	No	Yes	1
9559	476	7	MOVIE	0	Horror	Aftershock	No	Yes	1
31236	104	1	MOVIE	0	Horror	Rings	No	Yes	10
18613	920	15	SERIES/EPISODES	14	Comedy	Friends	No	Yes	10
14596	62	1	SERIES/EPISODES	3	Drama	Bayn Al Kanayen  	No	Yes	1
16899	3	0	MOVIE	0	Action	Oblivion	No	Yes	4
12272	97	1	MOVIE	0	Drama	My Cousin Rachel	No	Yes	1
30807	90	1	MOVIE	0	Animation	The Boss Baby	No	Yes	10
20653	82	1	MOVIE	0	NOT_DEFINED_IN_UMS	Dunkirk	No	Yes	1
19347	92	1	MOVIE	0	Crime	Scarface	No	Yes	5
4564	79	1	MOVIE	0	Action	Free Fire	No	Yes	1
9601	4351	72	MOVIE	0	Biography	The Pursuit of Happyness	No	Yes	1
22203	32	0	MOVIE	0	Thriller	Broken Vows	No	Yes	2
15963	697	11	MOVIE	0	Thriller	Red Dragon	No	Yes	9
29524	277	4	SERIES/EPISODES	12	Comedy	Kalam A-Nas	No	Yes	4
30176	6	0	MOVIE	0	Animation	Bionicle : The Legend Reborn	No	Yes	1
30645	2	0	MOVIE	0	Biography	Rebel in the Rye	No	Yes	1
28544	19	0	MOVIE	0	Animation	The Jetsons & WWE: Robo-WrestleMania!	No	Yes	1
6091	94	1	MOVIE	0	Animation	Trolls	No	Yes	3
21530	90	1	MOVIE	0	Horror	Alien: Covenant	No	Yes	7
2402	16	0	MOVIE	0	Animation	Tad the Lost Explorer	No	Yes	1
14005	135	2	MOVIE	0	Animation	Trolls	No	Yes	3
23385	6	0	MOVIE	0	Comedy	Step Brothers	No	Yes	2
30462	92	1	MOVIE	0	Animation	Ferdinand	No	Yes	3
13923	77	1	MOVIE	0	Documentary	An Inconvenient equel: Truth to Power	No	Yes	2
13088	90	1	MOVIE	0	Animation	The Boss Baby	No	Yes	10
17717	41	0	SERIES/EPISODES	1	Comedy	House of Lies	No	Yes	1
19185	60	1	MOVIE	0	Action	Morning tar	No	Yes	1
15433	17	0	MOVIE	0	Drama	100 treets	No	Yes	1
25017	5	0	MOVIE	0	Comedy	Going in tyle	No	Yes	3
18920	5837	97	MOVIE	0	Horror	Long Weekend	No	Yes	3
34071	6001	100	SERIES/EPISODES	12	Action	Teen Wolf	No	Yes	10
19715	89	1	MOVIE	0	Drama	Collateral Beauty	No	Yes	4
23425	29	0	MOVIE	0	Animation	Surf's Up : WaveMania	No	Yes	1
3483	3	0	MOVIE	0	Drama	Certain Women	No	Yes	1
17656	1330	22	SERIES/EPISODES	12	Comedy	Friends	No	Yes	10
13271	120	2	MOVIE	0	Animation	The uicide hop	No	Yes	1
1975	6	0	MOVIE	0	Animation	The Jetsons & WWE: Robo-WrestleMania!	No	Yes	1
1260	2	0	MOVIE	0	Comedy	Bean	No	Yes	6
28157	23	0	MOVIE	0	Action	Slow West	No	Yes	1
31909	52	0	MOVIE	0	Animation	Dragon Ball Z: Resurrection F	No	Yes	1
3178	13	0	MOVIE	0	Action	Kingsman: The ecret ervice	No	Yes	1
13170	26	0	MOVIE	0	Comedy	E-Dounia Maqlouba	No	Yes	1
29625	107	1	MOVIE	0	Action	Spider-Man: Homecoming	No	Yes	2
19450	1256	20	SERIES/EPISODES	1	Animation	Littlest Pet hop	No	Yes	1
14373	4143	69	MOVIE	0	Action	War for the Planet of the Apes	No	Yes	3
20428	9	0	MOVIE	0	Action	Robin Hood	No	Yes	4
3239	82	1	MOVIE	0	Horror	The Neighbor	No	Yes	1
32765	52	0	MOVIE	0	Comedy	Meet the Fockers	No	Yes	1
25038	26	0	MOVIE	0	Action	Instant Death	No	Yes	1
5788	9	0	MOVIE	0	Animation	The Boss Baby	No	Yes	10
11090	1426	23	SERIES/EPISODES	20	Animation	PAW Patrol	No	Yes	4
28586	86	1	MOVIE	0	Animation	Emoji Movie	No	Yes	1
26241	5301	88	MOVIE	0	Action	Empire tate	Yes	No	1
8459	180	3	SERIES/EPISODES	41	Animation	Nan and Lili	No	Yes	1
26384	3019	50	SERIES/EPISODES	15	Horror	The Walking Dead	Yes	No	10
11559	72	1	MOVIE	0	Animation	Moana	No	Yes	8
13843	80	1	MOVIE	0	Action	Prince of Persia: The ands of Time	No	Yes	1
27587	341	5	SERIES/EPISODES	26	Comedy	Kalam A-Nas	No	Yes	4
29789	7	0	MOVIE	0	Horror	Inside	No	Yes	4
5054	93	1	MOVIE	0	Action	Robin Hood	No	Yes	4
18777	87	1	MOVIE	0	Biography	Pele: Birth of a Legend	No	Yes	2
24569	25	0	MOVIE	0	Thriller	Red Dragon	No	Yes	9
6602	56	0	MOVIE	0	Animation	The Adventures of Petey and Friends	No	Yes	1
4890	91	1	MOVIE	0	Animation	The Boss Baby	No	Yes	10
21877	66	1	MOVIE	0	Comedy	Easy A	No	Yes	2
10764	1444	24	SERIES/EPISODES	2	Family	Yo Gabba Gabba!	No	Yes	10
16977	15	0	MOVIE	0	Action	Sherlock Holmes	No	Yes	1
13639	2	0	MOVIE	0	Comedy	Baywatch	No	Yes	6
2972	210	3	MOVIE	0	Animation	The Boss Baby	No	Yes	10
11008	26	0	MOVIE	0	Comedy	Baywatch	No	Yes	6
25976	70	1	MOVIE	0	Animation	The murfs	No	Yes	6
14169	58	0	MOVIE	0	Animation	Moana	No	Yes	8
23427	33	0	MOVIE	0	Animation	The Lego Batman Movie	No	Yes	1
10335	98	1	MOVIE	0	Documentary	An Inconvenient equel: Truth to Power	No	Yes	2
15740	13429	223	SERIES/EPISODES	6	Horror	The train	No	Yes	1
8173	3230	53	SERIES/EPISODES	14	Horror	The Walking Dead	No	Yes	10
5828	3708	61	SERIES/EPISODES	4	Action	Blindspot	No	Yes	6
3933	20	0	MOVIE	0	Drama	Fences	No	Yes	2
16779	35	0	MOVIE	0	Animation	The Jetsons & WWE: Robo-WrestleMania!	No	Yes	1
8358	74	1	MOVIE	0	Animation	Tom & Jerry: Willy Wonka and the Chocolate	No	Yes	1
15168	24	0	MOVIE	0	Animation	Surf's Up : WaveMania	No	Yes	1
2322	1292	21	SERIES/EPISODES	1	Comedy	Friends	No	Yes	10
13292	39	0	MOVIE	0	Action	Killer Elite	No	Yes	3
18615	8	0	MOVIE	0	Action	Morning tar	No	Yes	1
19084	4867	81	MOVIE	0	Action	Battle Los Angeles	No	Yes	1
10865	1518	25	SERIES/EPISODES	5	Animation	Dinofroz  	No	Yes	2
20388	7	0	MOVIE	0	Action	Police tory	Yes	No	3
179	141	2	MOVIE	0	Action	Harry Potter - Part	No	Yes	1
16005	7	0	MOVIE	0	Animation	Oliver and Company	No	Yes	1
32033	15	0	MOVIE	0	Animation	Cars	No	Yes	2
12783	100	1	MOVIE	0	Horror	Cloverfield	No	Yes	1
8684	20	0	MOVIE	0	Animation	Trolls	No	Yes	3
13313	1309	21	SERIES/EPISODES	7	Drama	Homeland	Yes	No	3
33848	9	0	SERIES/EPISODES	2	Horror	Bates Motel	Yes	No	1
24121	51	0	MOVIE	0	Action	Geostorm	No	Yes	3
10438	74	1	MOVIE	0	Animation	The Mermaid Princess	No	Yes	1
32439	65	1	MOVIE	0	Animation	The Adventures of Petey and Friends	No	Yes	1
31890	71	1	MOVIE	0	Animation	Puss in Boots	No	Yes	1
12964	93	1	MOVIE	0	Horror	Rings	No	Yes	10
28077	6	0	MOVIE	0	Horror	The Void	No	Yes	1
23652	80	1	MOVIE	0	NOT_DEFINED_IN_UMS	Dunkirk	No	Yes	1
10234	1175	19	SERIES/EPISODES	8	Animation	Shimmer And hine	No	Yes	2
25589	10334	172	SERIES/EPISODES	21	Animation	Littlest Pet hop  	No	Yes	1
22571	2592	43	SERIES/EPISODES	21	Drama	Bayna Laylatin Wa Dohaha	No	Yes	2
31339	91	1	MOVIE	0	Animation	The Boss Baby	No	Yes	10
15576	24	0	MOVIE	0	Action	Raze	No	Yes	1
31135	2340	39	SERIES/EPISODES	6	Drama	Beauty and the Beast	No	Yes	3
24590	131	2	MOVIE	0	Action	Transformers: Revenge of the Fallen	No	Yes	1
17799	1454	24	SERIES/EPISODES	11	Comedy	Kalam A-Nas	No	Yes	4
21957	85	1	MOVIE	0	Comedy	Daddy's Home	No	Yes	1
18676	23	0	MOVIE	0	Animation	Ferdinand	No	Yes	3
5544	5	0	MOVIE	0	Comedy	Snatched	No	Yes	1
26548	99	1	MOVIE	0	Action	Spider-Man: Homecoming	No	Yes	2
12396	4522	75	MOVIE	0	Animation	Spirit: tallion of the Cimarron	No	Yes	1
15719	102	1	MOVIE	0	Animation	The Mermaid Princess	No	Yes	1
8337	59	0	MOVIE	0	Horror	Carrie	No	Yes	6
1262	176	2	MOVIE	0	Animation	Trolls	No	Yes	3
20817	64	1	MOVIE	0	Biography	Lion	No	Yes	5
25793	93	1	MOVIE	0	Animation	Lego DC Comics uper Heroes: The Flash	No	Yes	1
20613	1326	22	SERIES/EPISODES	10	Animation	My Little Pony: Friendship Is Magic  	No	Yes	2
7563	45	0	SERIES/EPISODES	0	Documentary	Ultimate Airport Dubai	No	Yes	10
2404	8	0	MOVIE	0	Animation	The Mermaid Princess	No	Yes	1
17820	144	2	MOVIE	0	Animation	Ratatouille	No	Yes	1
14985	13	0	MOVIE	0	Comedy	Baby  Baby  Baby	No	Yes	1
6421	5	0	MOVIE	0	Biography	The Birth of a Nation	No	Yes	7
7828	73	1	SERIES/EPISODES	10	Drama	Heroes	No	Yes	5
21204	10	0	MOVIE	0	Family	RV: Runaway Vacation	No	Yes	3
4606	5	0	SERIES/EPISODES	1	Horror	American Horror tory	No	Yes	2
23103	3	0	MOVIE	0	Comedy	Blank Check	No	Yes	4
18554	31	0	MOVIE	0	Horror	Rings	No	Yes	10
22245	5	0	MOVIE	0	Comedy	The Family Man	No	Yes	4
27751	74	1	MOVIE	0	Horror	The Neighbor	No	Yes	1
7155	43	0	MOVIE	0	Drama	Coach Carter	No	Yes	1
32626	4	0	MOVIE	0	Comedy	Youm Maloosh Lazma	No	Yes	10
27528	70	1	MOVIE	0	Thriller	The Orphan	No	Yes	2
33095	128	2	MOVIE	0	Animation	The Jetsons & WWE: Robo-WrestleMania!	No	Yes	1
8278	74	1	MOVIE	0	Animation	The Mermaid Princess	No	Yes	1
22449	57	0	MOVIE	0	Comedy	Bean	No	Yes	6
2711	33	0	MOVIE	0	Comedy	Baywatch	No	Yes	6
22430	11	0	MOVIE	0	Animation	Coco	No	Yes	2
25917	2394	39	SERIES/EPISODES	7	Drama	Sadeeqat Al Omor  	Yes	No	6
9216	2381	39	MOVIE	0	Comedy	Big Daddy	No	Yes	1
33114	93	1	MOVIE	0	Animation	Trolls	No	Yes	3
22447	13	0	MOVIE	0	Action	London Heist	No	Yes	1
29404	1460	24	SERIES/EPISODES	21	Action	Blindspot	No	Yes	6
28935	88	1	MOVIE	0	Horror	Inside	No	Yes	4
9685	77	1	MOVIE	0	Drama	Two Lovers and a Bear	No	Yes	1
33360	111	1	MOVIE	0	Horror	Carrie	No	Yes	6
26466	91	1	MOVIE	0	Animation	Ice Age: Collision Course	No	Yes	1
4118	37	0	MOVIE	0	Animation	The pongeBob quarePants Movie	No	Yes	1
31280	40	0	MOVIE	0	Horror	Inside	No	Yes	4
20819	91	1	MOVIE	0	Thriller	Broken Vows	No	Yes	2
29200	11	0	MOVIE	0	Animation	Dragon Ball Z: Resurrection F	No	Yes	1
16659	17	0	MOVIE	0	Animation	Surf's Up : WaveMania	No	Yes	1
16657	4	0	SERIES/EPISODES	1	Comedy	Swedish D***S	No	Yes	1
18941	1309	21	SERIES/EPISODES	4	Animation	Dora And Friends: Into The City	No	Yes	2
160	720	12	SERIES/EPISODES	9	Family	Al Maaa	No	Yes	1
10154	3685	61	SERIES/EPISODES	2	Drama	12 Monkeys	No	Yes	2
1569	11	0	MOVIE	0	Animation	Coco	No	Yes	2
21288	91	1	MOVIE	0	Animation	The Boss Baby	No	Yes	10
26651	1328	22	SERIES/EPISODES	19	Animation	My Little Pony: Friendship Is Magic  	No	Yes	2
30342	3	0	MOVIE	0	Drama	Unfriended	No	Yes	1
21084	19	0	MOVIE	0	Action	The Hunter's Prayer	No	Yes	1
1607	93	1	MOVIE	0	Animation	Trolls	No	Yes	3
13641	1018	16	SERIES/EPISODES	1	Drama	Ward Jouri  	No	Yes	1
13437	197	3	MOVIE	0	Animation	Tad the Lost Explorer	No	Yes	1
8074	2	0	MOVIE	0	Action	Hancock	No	Yes	1
16514	37	0	MOVIE	0	Action	U.S. Marshals	No	Yes	1
2772	14	0	MOVIE	0	Horror	Escape Room	No	Yes	2
25244	6	0	MOVIE	0	Action	Jack Reacher: Never Go Back	No	Yes	2
24163	52	0	MOVIE	0	Animation	The Adventures of Petey and Friends	No	Yes	1
24102	52	0	MOVIE	0	Horror	Lights Out	No	Yes	1
4543	2	0	SERIES/EPISODES	8	Drama	Laqet Rohey	No	Yes	3
6463	706	11	SERIES/EPISODES	7	Animation	Animal Mechanicals	No	Yes	1
28262	2	0	MOVIE	0	Animation	The Mermaid Princess	No	Yes	1
427	24	0	MOVIE	0	Comedy	Baywatch	No	Yes	6
19881	47	0	MOVIE	0	Horror	Rings	No	Yes	10
16190	64	1	MOVIE	0	Comedy	Why Did I Get Married Too?	No	Yes	3
32014	28	0	MOVIE	0	Animation	Trolls	No	Yes	3
31341	17	0	SERIES/EPISODES	11	Action	Vikings	No	Yes	7
32422	13	0	MOVIE	0	Thriller	Numb	No	Yes	1
29873	2515	41	SERIES/EPISODES	17	Drama	Ward Jouri  	No	Yes	1
19412	23	0	MOVIE	0	Animation	Spirit: tallion of the Cimarron	No	Yes	1
19004	11	0	MOVIE	0	Action	Rogue One: A tar Wars tory	No	Yes	1
27360	29	0	MOVIE	0	Horror	Inside	No	Yes	4
20472	39	0	MOVIE	0	Animation	Lego DC Comics uper Heroes: The Flash	No	Yes	1
13029	20	0	SERIES/EPISODES	4	Drama	Extant	No	Yes	1
14049	84	1	MOVIE	0	Animation	Surf's Up : WaveMania	No	Yes	1
26712	87	1	MOVIE	0	Horror	A Cure for Wellness	No	Yes	3
30750	2432	40	SERIES/EPISODES	7	Action	Teen Wolf	No	Yes	10
19147	26	0	SERIES/EPISODES	1	Drama	Taboo	No	Yes	1
9420	62	1	MOVIE	0	Comedy	Meet the Fockers	No	Yes	1
17597	34	0	MOVIE	0	Comedy	School for coundrels	No	Yes	1
25652	80	1	MOVIE	0	Comedy	Snatched	No	Yes	1
19616	20	0	SERIES/EPISODES	7	Animation	Kung Fu Panda: Legends Of Awesomeness	Yes	No	1
11357	30602	510	SERIES/EPISODES	27	Drama	Bayn Al Kanayen  	No	Yes	1
15660	830	13	MOVIE	0	Animation	The Boss Baby	No	Yes	10
4322	75	1	MOVIE	0	Comedy	Doug tanhope: No Place Like Home	Yes	No	1
7197	45	0	MOVIE	0	Action	Pirates of the Caribbean: Dead Men Tell...	No	Yes	2
7258	7648	127	SERIES/EPISODES	4	Drama	Al Kasr Al Kabeer	No	Yes	3
32830	90	1	MOVIE	0	Animation	The Boss Baby	No	Yes	10
30546	81	1	MOVIE	0	Animation	Surf's Up : WaveMania	No	Yes	1
28588	61	1	MOVIE	0	Animation	Storks	No	Yes	1
17046	11	0	MOVIE	0	Action	War for the Planet of the Apes	No	Yes	3
26325	48505	808	SERIES/EPISODES	16	Drama	24	Yes	No	6
3975	4888	81	SERIES/EPISODES	14	Drama	House	Yes	No	10
10684	65	1	MOVIE	0	Animation	The Adventures of Petey and Friends	No	Yes	1
27732	73	1	MOVIE	0	Drama	Two Lovers and a Bear	No	Yes	1
11092	351	5	SERIES/EPISODES	1	Comedy	iCarly	No	Yes	1
25938	299	4	MOVIE	0	Action	Battleship	No	Yes	4
28956	4222	70	MOVIE	0	Action	Maze Runner: The Death Cure	No	Yes	1
15578	93	1	MOVIE	0	Animation	Trolls	No	Yes	3
14110	11	0	MOVIE	0	Animation	Howard Lovecraft and the Frozen Kingdom	No	Yes	1
31974	85	1	MOVIE	0	Action	Slow West	No	Yes	1
29425	96	1	MOVIE	0	Action	Spider-Man: Homecoming	No	Yes	2
32218	31	0	MOVIE	0	Animation	The Boss Baby	No	Yes	10
14987	1279	21	MOVIE	0	Animation	Barnyard	No	Yes	1
5525	11	0	MOVIE	0	Action	Speed Racer	No	Yes	1
15721	1323	22	SERIES/EPISODES	14	Animation	Sonic Underground	No	Yes	1
12724	92	1	MOVIE	0	Animation	The Lego Batman Movie	No	Yes	1
7157	1357	22	SERIES/EPISODES	13	Animation	Kung Fu Panda: Legends Of Awesomeness	No	Yes	1
29894	96	1	MOVIE	0	Animation	Cars	No	Yes	2
6198	700	11	SERIES/EPISODES	26	Animation	Wolverine and the X Men  	No	Yes	1
13193	637	10	SERIES/EPISODES	24	Drama	Sadeeqat Al Omor  	No	Yes	6
24327	2536	42	SERIES/EPISODES	1	Action	Agents of .H.I.E.L.D.	No	Yes	5
32443	97	1	MOVIE	0	Action	War for the Planet of the Apes	No	Yes	3
27242	21	0	MOVIE	0	Comedy	Going in tyle	No	Yes	3
1590	60	1	MOVIE	0	Drama	Dirty Dancing	No	Yes	1
2059	75	1	MOVIE	0	Animation	Moana	No	Yes	8
27038	58	0	MOVIE	0	Comedy	Baywatch	No	Yes	6
631	38	0	MOVIE	0	Thriller	10 Days in a Madhouse	No	Yes	4
30363	99	1	MOVIE	0	Documentary	An Inconvenient equel: Truth to Power	No	Yes	2
33156	75	1	MOVIE	0	Animation	Tom & Jerry: Willy Wonka and the Chocolate	No	Yes	1
22716	53	0	MOVIE	0	Action	The Expendables	No	Yes	8
33381	11	0	SERIES/EPISODES	5	Animation	Teenage Mutant Ninja Turtles	No	Yes	2
31301	21	0	MOVIE	0	Comedy	Baywatch	No	Yes	6
16680	747	12	SERIES/EPISODES	8	Animation	Marcus Level  	No	Yes	1
6219	4	0	SERIES/EPISODES	0	Drama	The Tudors	No	Yes	1
14600	12	0	MOVIE	0	Comedy	Table	No	Yes	1
6015	65	1	MOVIE	0	Animation	The Adventures of Petey and Friends	No	Yes	1
15273	21	0	MOVIE	0	Animation	Lego cooby-Doo! Blowout Beach Bash	No	Yes	1
27814	86	1	MOVIE	0	NOT_DEFINED_IN_UMS	Dunkirk	No	Yes	1
23858	63	1	MOVIE	0	Animation	The Adventures of Petey and Friends	No	Yes	1
20371	4926	82	MOVIE	0	Thriller	Broken Vows	No	Yes	2
9502	102	1	MOVIE	0	Animation	The Jetsons & WWE: Robo-WrestleMania!	No	Yes	1
27589	83	1	MOVIE	0	Thriller	Life	No	Yes	4
6688	95	1	MOVIE	0	Animation	Ferdinand	No	Yes	3
23185	1420	23	SERIES/EPISODES	1	Thriller	Hannibal	No	Yes	3
32912	9	0	MOVIE	0	Drama	The hape of Water	No	Yes	3
9706	784	13	SERIES/EPISODES	7	Comedy	Friends	No	Yes	10
23429	258	4	MOVIE	0	Thriller	Saw	No	Yes	2
19229	59	0	MOVIE	0	Drama	Collateral Beauty	No	Yes	4
2202	2417	40	SERIES/EPISODES	14	Horror	The Walking Dead	Yes	No	10
15538	708	11	MOVIE	0	Comedy	The Other Guys	No	Yes	5
10787	74	1	SERIES/EPISODES	4	Comedy	Men at Work	Yes	No	1
33055	94	1	MOVIE	0	Action	The Hunter's Prayer	No	Yes	1
10909	47	0	MOVIE	0	Thriller	The Guest	No	Yes	2
17149	2386	39	SERIES/EPISODES	3	Action	Vikings  	No	Yes	4
24939	1487	24	SERIES/EPISODES	1	Action	Teen Wolf	No	Yes	10
31566	38	0	MOVIE	0	Horror	Rings	No	Yes	10
2671	41	0	MOVIE	0	Comedy	The Hangover Part II	No	Yes	1
12989	48	0	MOVIE	0	Comedy	Baywatch	No	Yes	6
13458	57	0	MOVIE	0	Horror	Paranormal Activity	No	Yes	1
122	91	1	MOVIE	0	Horror	The Devil's Candy	No	Yes	1
25408	5	0	MOVIE	0	Drama	Collateral Beauty	No	Yes	4
23654	108	1	MOVIE	0	Comedy	Absolutely Fabulous: The Movie	No	Yes	1
7035	94	1	MOVIE	0	Animation	Trolls	No	Yes	3
17292	1248	20	SERIES/EPISODES	5	Comedy	Blackish	No	Yes	1
4669	50	0	MOVIE	0	Animation	The Mermaid Princess	No	Yes	1
22859	71	1	MOVIE	0	Biography	Almost Famous	No	Yes	4
15620	93	1	MOVIE	0	Animation	Ferdinand	No	Yes	3
11725	139	2	MOVIE	0	Animation	Ferdinand	No	Yes	3
26754	54	0	MOVIE	0	Comedy	Baywatch	No	Yes	6
4404	9	0	MOVIE	0	Comedy	Baywatch	No	Yes	6
10236	26	0	SERIES/EPISODES	0	Animation	Marcus Level  	No	Yes	1
1182	57	0	MOVIE	0	Animation	Trolls	No	Yes	3
20310	96	1	MOVIE	0	Comedy	Table	No	Yes	1
28895	2994	49	SERIES/EPISODES	6	Drama	Ash-Shak  	No	Yes	1
25795	173	2	SERIES/EPISODES	1	Comedy	Friends	No	Yes	10
13071	94	1	MOVIE	0	Animation	Ferdinand	No	Yes	3
21187	79	1	MOVIE	0	Animation	Coco	No	Yes	2
22512	68	1	MOVIE	0	Comedy	Blank Check	No	Yes	4
9176	67	1	MOVIE	0	Biography	The Founder	No	Yes	5
2141	20	0	MOVIE	0	Comedy	Snatched	No	Yes	1
21860	3340	55	MOVIE	0	Animation	Snow White's New Adventure	No	Yes	1
4486	81	1	MOVIE	0	Action	Jack Reacher: Never Go Back	No	Yes	2
16293	93	1	MOVIE	0	Animation	Trolls	No	Yes	3
4078	96	1	MOVIE	0	Drama	Snowden	No	Yes	2
26815	24	0	SERIES/EPISODES	9	Drama	Unforgettable	No	Yes	3
18638	2112	35	SERIES/EPISODES	12	Action	Agents of .H.I.E.L.D.	No	Yes	5
7504	62	1	MOVIE	0	Drama	The Girl on the Train	No	Yes	3
1529	88	1	MOVIE	0	Animation	The Boss Baby	No	Yes	10
10726	80	1	MOVIE	0	NOT_DEFINED_IN_UMS	Dunkirk	No	Yes	1
24878	21	0	MOVIE	0	Animation	Tad the Lost Explorer	No	Yes	1
2406	30	0	MOVIE	0	Action	Transformers: Age of Extinction	No	Yes	1
18230	65	1	MOVIE	0	Drama	Three Billboards Outside Ebbing  Missouri	No	Yes	1
21656	84	1	MOVIE	0	Horror	Aftershock	No	Yes	1
22125	14	0	MOVIE	0	Animation	Captain Underpants: The First Epic Movie	No	Yes	1
27284	4	0	MOVIE	0	Animation	Alvin and the Chipmunks	No	Yes	1
16150	1284	21	SERIES/EPISODES	3	Animation	Littlest Pet hop	No	Yes	1
13744	102	1	MOVIE	0	Animation	The Jetsons & WWE: Robo-WrestleMania!	No	Yes	1
27896	93	1	MOVIE	0	Family	Swallows and Amazons	No	Yes	2
32056	28	0	MOVIE	0	Animation	The Mermaid Princess	No	Yes	1
33320	9	0	MOVIE	0	Thriller	The Black Dahlia	No	Yes	4
12337	6778	112	MOVIE	0	Action	Allied	No	Yes	1
2610	621	10	SERIES/EPISODES	1	Animation	Rubbadubbers	No	Yes	1
6770	59	0	MOVIE	0	Comedy	Bean	No	Yes	6
8503	81	1	MOVIE	0	Animation	Coco	No	Yes	2
25204	2	0	MOVIE	0	Action	World War Z	No	Yes	1
2345	1268	21	SERIES/EPISODES	22	Comedy	Friends	Yes	No	10
16558	60	1	MOVIE	0	Action	Free Fire	No	Yes	1
22064	34	0	MOVIE	0	Drama	Unforgettable	No	Yes	3
22655	89	1	MOVIE	0	Drama	Collateral Beauty	No	Yes	4
19780	91	1	MOVIE	0	Animation	The Boss Baby	No	Yes	10
11460	357	5	MOVIE	0	Action	The Hunter's Prayer	No	Yes	1
5954	46	0	MOVIE	0	Animation	The Boss Baby	No	Yes	10
34197	29	0	MOVIE	0	Comedy	Youm Maloosh Lazma	No	Yes	10
14213	3	0	MOVIE	0	Horror	Inside	No	Yes	4
8646	112	1	MOVIE	0	Drama	The Exception	Yes	No	1
29507	24	0	MOVIE	0	Action	Instant Death	No	Yes	1
14539	210	3	SERIES/EPISODES	11	Thriller	Damages	No	Yes	4
8972	72	1	MOVIE	0	Action	Trespass Against Us	No	Yes	1
34136	25	0	MOVIE	0	Biography	The Greatest howman	No	Yes	2
26693	576	9	SERIES/EPISODES	4	Animation	Puppy In My Pocket  	No	Yes	1
10930	6742	112	MOVIE	0	Biography	Churchill	No	Yes	2
1407	311	5	SERIES/EPISODES	17	Animation	Pingu	Yes	No	1
5363	22	0	MOVIE	0	Animation	The Adventures of Petey and Friends	No	Yes	1
5893	86	1	MOVIE	0	Comedy	Going in tyle	No	Yes	3
30180	2536	42	MOVIE	0	Action	The Amazing pider-Man	No	Yes	10
4894	28	0	MOVIE	0	Action	The Accountant	No	Yes	2
938	11	0	MOVIE	0	Comedy	Bean	No	Yes	6
15559	36	0	MOVIE	0	Comedy	While You Were leeping	No	Yes	1
23206	46	0	MOVIE	0	Comedy	Garfield: A Tale of Two Kitties	No	Yes	1
13010	82	1	MOVIE	0	Thriller	Life	No	Yes	4
1672	5636	93	MOVIE	0	Animation	Coco	No	Yes	2
9054	105	1	MOVIE	0	Action	King Arthur: Legend of the word	No	Yes	1
18964	4	0	MOVIE	0	Action	Sword of Vengeance	No	Yes	1
10257	695	11	MOVIE	0	Comedy	Fanboys	No	Yes	1
29242	1752	29	SERIES/EPISODES	14	Drama	Ya Reit	No	Yes	2
4343	79	1	MOVIE	0	Family	The BFG	No	Yes	10
734	82	1	MOVIE	0	NOT_DEFINED_IN_UMS	Dunkirk	No	Yes	1
18434	1554	25	MOVIE	0	Drama	Synecdoche  New York	No	Yes	1
7443	96	1	MOVIE	0	Drama	Unforgettable	No	Yes	3
1264	86	1	MOVIE	0	Comedy	Going in tyle	No	Yes	3
7912	93	1	MOVIE	0	Family	Cats and Dogs	No	Yes	1
14621	158	2	MOVIE	0	Horror	Annabelle: Creation	No	Yes	7
29711	23	0	MOVIE	0	Thriller	#FollowFriday	No	Yes	1
22737	80	1	MOVIE	0	Action	Geostorm	No	Yes	3
14152	2400	40	SERIES/EPISODES	11	Animation	Slugterra	No	Yes	2
6505	80	1	MOVIE	0	Animation	Tad the Lost Explorer	No	Yes	1
19719	100	1	MOVIE	0	Action	Spider-Man: Homecoming	No	Yes	2
3018	72	1	MOVIE	0	Animation	Moana	No	Yes	8
12602	96	1	MOVIE	0	Action	Assassin's Creed	No	Yes	2
16028	2	0	MOVIE	0	Comedy	Brigsby Bear	No	Yes	1
2625	1318	21	SERIES/EPISODES	14	Animation	Blaze And The Monster Machines	No	Yes	4
26138	23	0	MOVIE	0	Comedy	Let's Be Cops	No	Yes	2
6314	87	1	MOVIE	0	Drama	Collateral Beauty	No	Yes	4
7418	93	1	MOVIE	0	Animation	Trolls	No	Yes	3
19307	45	0	MOVIE	0	Animation	The Adventures of Petey and Friends	No	Yes	1
7416	33	0	MOVIE	0	Animation	Surf's Up : WaveMania	No	Yes	1
20775	86	1	MOVIE	0	Comedy	Going in tyle	No	Yes	3
15227	7230	120	MOVIE	0	Action	Vigilante Diaries	No	Yes	1
6358	16	0	MOVIE	0	Animation	Ferdinand	No	Yes	3
11660	7	0	MOVIE	0	Animation	The Boss Baby	No	Yes	10
6215	99	1	MOVIE	0	Comedy	A Dog's Purpose	No	Yes	2
9784	26	0	MOVIE	0	Drama	Gifted	No	Yes	2
1035	59	0	MOVIE	0	Action	George of the Jungle	No	Yes	1
18287	2	0	MOVIE	0	Action	Atomic Blonde	No	Yes	1
31112	91	1	MOVIE	0	Animation	The Boss Baby	No	Yes	10
33846	86	1	MOVIE	0	Comedy	Going in tyle	No	Yes	3
890	89	1	MOVIE	0	Drama	Collateral Beauty	No	Yes	4
29665	7	0	MOVIE	0	Animation	The Boss Baby	No	Yes	10
25343	6037	100	MOVIE	0	Action	The November Man	No	Yes	4
26811	96	1	MOVIE	0	Drama	Unforgettable	No	Yes	3
14758	81	1	MOVIE	0	Family	Diary of a Wimpy Kid: The Long Haul	No	Yes	2
34050	23	0	MOVIE	0	Horror	Inside	No	Yes	4
14535	48	0	MOVIE	0	Drama	Billy Lynn’s Long Halftime Walk	No	Yes	1
20142	937	15	SERIES/EPISODES	11	Thriller	Dexter	No	Yes	10
16880	12	0	MOVIE	0	Animation	Surf's Up : WaveMania	No	Yes	1
19694	1510	25	SERIES/EPISODES	3	Drama	Hell On Wheels	No	Yes	2
14657	101	1	MOVIE	0	Animation	The Jetsons & WWE: Robo-WrestleMania!	No	Yes	1
21917	2	0	MOVIE	0	Thriller	The Village	No	Yes	1
28952	109	1	MOVIE	0	Action	Prince of Persia: The ands of Time	No	Yes	1
27423	12	0	MOVIE	0	Animation	The Nut Job : Nutty by Nature	No	Yes	1
25404	2146	35	SERIES/EPISODES	1	Drama	Doctorah Fi Al Hob	No	Yes	1
10905	234	3	SERIES/EPISODES	26	Animation	PAW Patrol	No	Yes	4
14270	3	0	MOVIE	0	Biography	Rebel in the Rye	No	Yes	1
17696	93	1	MOVIE	0	Animation	Trolls	No	Yes	3
24323	1330	22	SERIES/EPISODES	1	Comedy	iCarly	No	Yes	1
16245	12	0	MOVIE	0	Horror	Rings	No	Yes	10
15269	80	1	MOVIE	0	Documentary	An Inconvenient equel: Truth to Power	No	Yes	2
7092	60	1	MOVIE	0	Action	Sleepless	No	Yes	1
3727	102	1	MOVIE	0	Animation	The Jetsons & WWE: Robo-WrestleMania!	No	Yes	1
21059	4	0	MOVIE	0	Horror	Rings	No	Yes	10
21692	2	0	SERIES/EPISODES	3	Animation	PAW Patrol	No	Yes	4
5378	899	14	SERIES/EPISODES	11	Animation	Dinofroz  	No	Yes	2
1933	80	1	MOVIE	0	Animation	Lego cooby-Doo! Blowout Beach Bash	No	Yes	1
5010	2425	40	SERIES/EPISODES	7	Horror	The Walking Dead	No	Yes	10
5073	14	0	MOVIE	0	Animation	Ferdinand	No	Yes	3
11782	31	0	MOVIE	0	Drama	Collateral Beauty	No	Yes	4
852	23	0	MOVIE	0	Thriller	Saw	No	Yes	2
26769	23	0	MOVIE	0	Action	The Amazing pider-Man	Yes	No	10
934	10	0	MOVIE	0	Action	War for the Planet of the Apes	No	Yes	3
23324	2085	34	MOVIE	0	Comedy	The Family Man	No	Yes	4
3094	92	1	MOVIE	0	Animation	Ferdinand	No	Yes	3
4440	67	1	MOVIE	0	Horror	Transfiguration	No	Yes	1
3136	2	0	MOVIE	0	Animation	Moana	No	Yes	8
20571	69	1	MOVIE	0	Action	Guardians Of The Tomb	No	Yes	1
730	1386	23	SERIES/EPISODES	14	Animation	PAW Patrol	No	Yes	4
30012	61	1	MOVIE	0	Comedy	Why Him	No	Yes	2
3279	4808	80	SERIES/EPISODES	6	Drama	Shades Of Blue	No	Yes	2
28319	149	2	MOVIE	0	Animation	The Boss Baby	No	Yes	10
25955	82	1	MOVIE	0	Animation	Lego cooby-Doo! Blowout Beach Bash	No	Yes	1
6520	3702	61	SERIES/EPISODES	2	Drama	Britannia	No	Yes	1
32521	67	1	MOVIE	0	Horror	Transfiguration	No	Yes	1
9988	84	1	MOVIE	0	Action	Star Wars: The Last Jedi	No	Yes	1
7235	370	6	MOVIE	0	Comedy	Bad Boys	No	Yes	7
19898	66	1	MOVIE	0	Action	Killer Elite	No	Yes	3
29787	19	0	SERIES/EPISODES	1	Family	Yo Gabba Gabba!	No	Yes	10
17206	6239	103	MOVIE	0	Animation	The Mermaid Princess	No	Yes	1
23732	85	1	MOVIE	0	Drama	100 treets	No	Yes	1
10783	100	1	MOVIE	0	Action	Spider-Man: Homecoming	No	Yes	2
21263	91	1	MOVIE	0	Thriller	Broken Vows	No	Yes	2
21122	8	0	MOVIE	0	Animation	Final Fantasy VII: Advent Children	No	Yes	1
33602	66	1	MOVIE	0	Animation	Moana	No	Yes	8
5094	51	0	MOVIE	0	Animation	Tom And Jerry: anta's Little Helpers	No	Yes	1
10926	71	1	MOVIE	0	Horror	Friday The th - Part III	No	Yes	1
5542	42	0	SERIES/EPISODES	1	Family	Yo Gabba Gabba!	No	Yes	10
18960	59	0	SERIES/EPISODES	10	Animation	Teenage Mutant Ninja Turtles	No	Yes	2
23875	90	1	MOVIE	0	Animation	The Boss Baby	No	Yes	10
19103	76	1	MOVIE	0	Animation	Batman vs. Two Face	No	Yes	1
20081	142	2	SERIES/EPISODES	1	Animation	Jelly Jamm  	No	Yes	1
19143	1354	22	SERIES/EPISODES	5	Horror	The Walking Dead	No	Yes	10
32990	25	0	MOVIE	0	Comedy	Baywatch	No	Yes	6
17431	29172	486	MOVIE	0	Crime	Inside Man	No	Yes	10
8703	57	0	MOVIE	0	Horror	Exists	No	Yes	1
8417	77	1	MOVIE	0	Drama	Billy Lynn’s Long Halftime Walk	No	Yes	1
30849	1272	21	SERIES/EPISODES	25	Comedy	Friends	No	Yes	10
31379	33	0	MOVIE	0	Action	Jack Reacher: Never Go Back	No	Yes	2
30319	8	0	MOVIE	0	Action	Rollerball	No	Yes	1
24548	88	1	MOVIE	0	Drama	100 treets	No	Yes	1
2177	75	1	MOVIE	0	Animation	The Mermaid Princess	No	Yes	1
31053	5	0	SERIES/EPISODES	25	Drama	Caramel  	No	Yes	3
31440	153	2	SERIES/EPISODES	4	Animation	Pingu	No	Yes	1
4808	75	1	MOVIE	0	Animation	Tom & Jerry: Willy Wonka and the Chocolate	No	Yes	1
14291	89	1	MOVIE	0	Animation	The Boss Baby	No	Yes	10
30788	10	0	MOVIE	0	Horror	Rings	No	Yes	10
8520	97	1	MOVIE	0	Documentary	Ronaldo	No	Yes	10
29074	16	0	MOVIE	0	Animation	Rugrats in Paris: The Movie	No	Yes	1
23772	1360	22	SERIES/EPISODES	2	Animation	Kung Fu Panda: Legends Of Awesomeness	No	Yes	1
200	23	0	MOVIE	0	Comedy	Tambola	No	Yes	1
18226	4293	71	MOVIE	0	Comedy	22 Jump treet	No	Yes	3
7704	6	0	MOVIE	0	Comedy	Youm Maloosh Lazma	No	Yes	10
17227	74	1	MOVIE	0	Comedy	22 Jump treet	No	Yes	3
14760	90	1	MOVIE	0	Animation	The Boss Baby	No	Yes	10
7786	13	0	MOVIE	0	Biography	The Greatest howman	No	Yes	2
22672	61	1	MOVIE	0	Action	Morning tar	No	Yes	1
25221	97	1	MOVIE	0	Horror	Rings	No	Yes	10
19919	64	1	MOVIE	0	Action	Spider-Man: Homecoming	No	Yes	2
10131	18	0	MOVIE	0	Thriller	The Da Vinci Code	No	Yes	6
26750	2704	45	SERIES/EPISODES	17	Action	The Flash	No	Yes	5
20184	1319	21	SERIES/EPISODES	10	Animation	Blaze And The Monster Machines	No	Yes	4
10253	4	0	MOVIE	0	Action	Pirates of the Caribbean: Dead Men Tell...	No	Yes	2
2015	69	1	SERIES/EPISODES	6	Comedy	The Thundermans	No	Yes	1
6440	1278	21	SERIES/EPISODES	12	Comedy	Friends	No	Yes	10
17839	1311	21	SERIES/EPISODES	1	Comedy	Friends	No	Yes	10
21061	99	1	MOVIE	0	Thriller	Brimstone	No	Yes	3
9559	80	1	MOVIE	0	NOT_DEFINED_IN_UMS	Dunkirk	No	Yes	1
7010	3	0	MOVIE	0	Comedy	Big Daddy	No	Yes	1
18613	1407	23	SERIES/EPISODES	19	Comedy	Friends	No	Yes	10
14596	8	0	SERIES/EPISODES	3	Drama	Haret Al Yahud	No	Yes	1
16899	2	0	MOVIE	0	Action	The Man With The Iron Fists	No	Yes	3
12272	19	0	MOVIE	0	Drama	My Cousin Rachel	No	Yes	1
20041	30464	507	SERIES/EPISODES	16	Comedy	Dalaa Banat  	No	Yes	1
36	29	0	MOVIE	0	Comedy	Their Finest	No	Yes	1
19347	1194	19	SERIES/EPISODES	1	Drama	24: Live Another Day	No	Yes	1
4564	87	1	MOVIE	0	Animation	Ice Age: Collision Course	No	Yes	1
9601	64	1	MOVIE	0	Thriller	#FollowFriday	No	Yes	1
22203	7	0	MOVIE	0	Horror	Lights Out	No	Yes	1
30176	790	13	MOVIE	0	Documentary	He Named Me Malala	No	Yes	4
30645	11	0	MOVIE	0	Animation	Ferdinand	No	Yes	3
28544	62	1	MOVIE	0	Animation	The Jetsons & WWE: Robo-WrestleMania!	No	Yes	1
6091	99	1	MOVIE	0	Horror	Rings	No	Yes	10
21530	184	3	MOVIE	0	Biography	Sully	No	Yes	6
2402	2	0	MOVIE	0	Family	The Muppets	No	Yes	1
14005	93	1	MOVIE	0	Animation	Trolls	No	Yes	3
7540	34	0	MOVIE	0	Animation	Storks	No	Yes	1
23385	1932	32	SERIES/EPISODES	8	Drama	Homeland	No	Yes	3
11456	81	1	MOVIE	0	Comedy	Fist Fight	No	Yes	2
30462	94	1	MOVIE	0	Drama	The hape of Water	No	Yes	3
13923	81	1	MOVIE	0	Action	Geostorm	No	Yes	3
13088	93	1	MOVIE	0	Drama	The hape of Water	No	Yes	3
17717	3	0	SERIES/EPISODES	1	Horror	The Walking Dead	No	Yes	10
15433	3628	60	MOVIE	0	Animation	Trolls	No	Yes	3
25017	10	0	MOVIE	0	Animation	The Boss Baby	No	Yes	10
18920	44	0	MOVIE	0	Horror	Transfiguration	No	Yes	1
34071	73	1	MOVIE	0	Action	Sorority Party Massacre	No	Yes	1
19715	23	0	MOVIE	0	Animation	Surf's Up : WaveMania	No	Yes	1
23425	23	0	MOVIE	0	Animation	The pongeBob quarePants Movie	No	Yes	1
3483	15	0	MOVIE	0	Horror	Paranormal Activity: The Marked Ones	No	Yes	1
17656	3015	50	SERIES/EPISODES	2	Action	Blindspot	No	Yes	6
13271	56	0	SERIES/EPISODES	1	Animation	Thomas And Friends	No	Yes	1
29053	82	1	MOVIE	0	Horror	The Neighbor	No	Yes	1
1975	3053	50	SERIES/EPISODES	5	Drama	The Americans	No	Yes	1
1260	5	0	MOVIE	0	Action	First Kill	No	Yes	1
31909	92	1	MOVIE	0	Animation	The Boss Baby	No	Yes	10
3178	75	1	MOVIE	0	Animation	The Mermaid Princess	No	Yes	1
13170	14	0	MOVIE	0	Animation	Anomalisa	No	Yes	1
29625	95	1	MOVIE	0	Drama	The hape of Water	No	Yes	3
19450	1385	23	SERIES/EPISODES	7	Animation	PAW Patrol	No	Yes	4
14373	15	0	MOVIE	0	Animation	Captain Underpants: The First Epic Movie	No	Yes	1
20428	40	0	MOVIE	0	Action	Django Unchained	No	Yes	2
3239	137	2	MOVIE	0	Action	Transformers	No	Yes	1
32765	56	0	MOVIE	0	Action	Justice League	No	Yes	1
25038	20	0	MOVIE	0	Action	Instant Death	No	Yes	1
5788	25	0	MOVIE	0	Animation	Trolls	No	Yes	3
11090	57	0	MOVIE	0	Horror	You're Next	No	Yes	3
28586	78	1	MOVIE	0	Animation	The Jetsons & WWE: Robo-WrestleMania!	No	Yes	1
26241	39	0	MOVIE	0	Drama	The Eagle	Yes	No	5
8459	1378	22	SERIES/EPISODES	3	Animation	Dora the Explorer	No	Yes	3
26384	39	0	SERIES/EPISODES	6	Horror	The Walking Dead	Yes	No	10
11559	72	1	MOVIE	0	Animation	Moana	No	Yes	8
13843	84	1	MOVIE	0	Action	Independence Daysaster	No	Yes	1
27587	1192	19	SERIES/EPISODES	10	Comedy	Kalam A-Nas	No	Yes	4
18043	6	0	MOVIE	0	Documentary	An Inconvenient equel: Truth to Power	No	Yes	2
29789	10	0	MOVIE	0	Action	Rogue One: A tar Wars tory	No	Yes	1
5054	237	3	MOVIE	0	Drama	21 Grams	No	Yes	2
18777	2417	40	MOVIE	0	Animation	Dragon Ball Z: Resurrection F	No	Yes	1
24569	2	0	MOVIE	0	Comedy	Friends with Benefits	No	Yes	3
6602	33	0	MOVIE	0	Animation	The Adventures of Petey and Friends	No	Yes	1
4890	92	1	MOVIE	0	Animation	The Boss Baby	No	Yes	10
21877	2596	43	SERIES/EPISODES	4	Horror	The Walking Dead	No	Yes	10
10764	2415	40	SERIES/EPISODES	17	Drama	Madrasat Al Hob	No	Yes	3
16977	38	0	MOVIE	0	Action	Blood Father	No	Yes	1
13639	23	0	MOVIE	0	Drama	Three Billboards Outside Ebbing  Missouri	No	Yes	1
25711	73	1	MOVIE	0	Animation	Lady and the Tramp	Yes	No	1
2972	2	0	MOVIE	0	Comedy	My Old Lady	No	Yes	1
11008	88	1	MOVIE	0	Comedy	Snatched	No	Yes	1
25976	71	1	MOVIE	0	Comedy	Fun with Dick and Jane	No	Yes	1
22956	6	0	MOVIE	0	Biography	Public Enemies	No	Yes	10
14169	37	0	MOVIE	0	Animation	Trolls	No	Yes	3
23427	6	0	MOVIE	0	Drama	The hape of Water	No	Yes	3
10335	98	1	MOVIE	0	Documentary	An Inconvenient equel: Truth to Power	No	Yes	2
15740	93	1	SERIES/EPISODES	1	Horror	American Horror tory	No	Yes	2
5828	45	0	SERIES/EPISODES	1	Animation	Dinofroz  	No	Yes	2
3933	90	1	MOVIE	0	Animation	The Boss Baby	No	Yes	10
16779	62	1	MOVIE	0	Animation	The Mermaid Princess	No	Yes	1
8358	15	0	MOVIE	0	Action	Atomic Blonde	No	Yes	1
15168	30	0	MOVIE	0	Animation	The Jetsons & WWE: Robo-WrestleMania!	No	Yes	1
2322	3976	66	MOVIE	0	Action	Men In Black	No	Yes	3
13292	2	0	MOVIE	0	Action	Stealth	No	Yes	2
18615	73	1	MOVIE	0	Biography	Rebel in the Rye	No	Yes	1
19084	14693	244	MOVIE	0	Action	The Hobbit: The Desolation Of maug	No	Yes	2
10865	1173	19	SERIES/EPISODES	3	Comedy	2 Fil-Isaaf  	No	Yes	1
20388	27	0	SERIES/EPISODES	21	Action	Blindspot	Yes	No	6
179	80	1	SERIES/EPISODES	0	Animation	Slugterra	No	Yes	2
16005	87	1	MOVIE	0	Animation	The Boss Baby	No	Yes	10
32033	136	2	MOVIE	0	Animation	The pongeBob quarePants Movie	No	Yes	1
12783	12	0	MOVIE	0	Action	Resident Evil: The Final Chapter	No	Yes	1
8684	72	1	MOVIE	0	Animation	Moana	No	Yes	8
13313	93668	1561	SERIES/EPISODES	11	Drama	Homeland	Yes	No	3
33848	1386	23	SERIES/EPISODES	2	Animation	PAW Patrol	Yes	No	4
24121	84	1	MOVIE	0	Animation	Surf's Up : WaveMania	No	Yes	1
10438	69	1	MOVIE	0	Horror	Rings	No	Yes	10
32439	12	0	MOVIE	0	Action	Born Of War	No	Yes	1
31890	1098	18	MOVIE	0	Animation	The Lego Batman Movie	No	Yes	1
12964	88	1	MOVIE	0	Drama	Collateral Beauty	No	Yes	4
28077	73	1	SERIES/EPISODES	0	Action	Supergirl	No	Yes	4
23652	11	0	MOVIE	0	Documentary	An Inconvenient equel: Truth to Power	No	Yes	2
10234	5343	89	MOVIE	0	Drama	Closer	No	Yes	1
25589	423	7	SERIES/EPISODES	2	Animation	My Little Pony: Friendship Is Magic  	No	Yes	2
22428	91	1	MOVIE	0	Animation	The Boss Baby	No	Yes	10
22571	1066	17	SERIES/EPISODES	5	Horror	The Walking Dead	No	Yes	10
31339	91	1	MOVIE	0	Animation	The Boss Baby	No	Yes	10
15576	4	0	MOVIE	0	Horror	The Borderlands	No	Yes	1
31135	2392	39	SERIES/EPISODES	13	Drama	Beauty and the Beast	No	Yes	3
24590	81	1	MOVIE	0	Action	Kingsman: The Golden Circle	No	Yes	1
17799	1703	28	SERIES/EPISODES	14	Comedy	Kalam A-Nas	No	Yes	4
21957	58	0	MOVIE	0	Drama	Arrival	No	Yes	2
18676	15	0	MOVIE	0	Animation	The Adventures of Petey and Friends	No	Yes	1
5544	10	0	MOVIE	0	Thriller	10 Days in a Madhouse	No	Yes	4
26548	91	1	MOVIE	0	Animation	The Boss Baby	No	Yes	10
12396	6200	103	MOVIE	0	Comedy	The Incredibles	No	Yes	2
15719	93	1	MOVIE	0	Drama	Collateral Beauty	No	Yes	4
8337	2489	41	SERIES/EPISODES	20	Action	Teen Wolf	No	Yes	10
1262	55	0	MOVIE	0	Drama	Third tar	No	Yes	1
5319	21	0	SERIES/EPISODES	1	Animation	Dinofroz  	No	Yes	2
20817	66	1	MOVIE	0	Action	xXx: Return of Xander Cage	No	Yes	2
25793	76	1	MOVIE	0	Biography	Rebel in the Rye	No	Yes	1
31625	94	1	MOVIE	0	Animation	Captain Underpants: The First Epic Movie	No	Yes	1
20613	74	1	MOVIE	0	Comedy	22 Jump treet	No	Yes	3
2404	91	1	MOVIE	0	Animation	The Boss Baby	No	Yes	10
17820	73	1	MOVIE	0	Animation	Lady and the Tramp	No	Yes	1
14985	1530	25	SERIES/EPISODES	1	Animation	SpongeBob quarePants	No	Yes	2
6421	746	12	MOVIE	0	Animation	Trolls	No	Yes	3
7828	2545	42	SERIES/EPISODES	2	Action	Vikings	No	Yes	7
21204	1059	17	MOVIE	0	Comedy	Moms' Night Out	No	Yes	2
4606	253	4	SERIES/EPISODES	1	Drama	Siret Hob	No	Yes	1
23103	84	1	MOVIE	0	Action	Seventh on	No	Yes	2
18554	20	0	MOVIE	0	Action	War for the Planet of the Apes	No	Yes	3
22245	80	1	MOVIE	0	Drama	Finding Forrester	No	Yes	5
27751	7235	120	MOVIE	0	Biography	Lion	No	Yes	5
7155	101	1	MOVIE	0	Biography	The Birth of a Nation	No	Yes	7
32626	89	1	MOVIE	0	Comedy	Snatched	No	Yes	1
27528	69	1	SERIES/EPISODES	18	Action	Vikings	No	Yes	7
33095	106	1	MOVIE	0	Action	Stealth	No	Yes	2
8278	5771	96	MOVIE	0	Comedy	Anger Management	No	Yes	1
22449	57	0	MOVIE	0	Comedy	Bean	No	Yes	6
2711	88	1	MOVIE	0	Action	The Amazing pider-Man	No	Yes	10
13986	915	15	MOVIE	0	Action	The Man with the Iron Heart	No	Yes	1
22430	420	7	MOVIE	0	Animation	Tad the Lost Explorer	No	Yes	1
25917	77	1	MOVIE	0	Action	Prince of Persia: The ands of Time	Yes	No	1
9216	2613	43	SERIES/EPISODES	8	Horror	American Horror tory	No	Yes	2
33114	61	1	MOVIE	0	Animation	Surf's Up : WaveMania	No	Yes	1
22447	62	1	MOVIE	0	Horror	Alien: Covenant	No	Yes	7
29404	1136	18	SERIES/EPISODES	1	Drama	Heroes	No	Yes	5
28935	87	1	MOVIE	0	Drama	Indignation	No	Yes	1
9685	96	1	MOVIE	0	Animation	Trolls	No	Yes	3
33360	94	1	MOVIE	0	Comedy	Why Him	No	Yes	2
26466	91	1	MOVIE	0	Animation	The Boss Baby	No	Yes	10
4118	64	1	MOVIE	0	Animation	The Adventures of Petey and Friends	No	Yes	1
31280	210	3	MOVIE	0	Animation	Ferdinand	No	Yes	3
20819	83	1	MOVIE	0	Thriller	Synchronicity	No	Yes	1
29850	6	0	MOVIE	0	Animation	The Boss Baby	No	Yes	10
16657	14	0	SERIES/EPISODES	27	Drama	Caramel  	No	Yes	3
18941	6	0	SERIES/EPISODES	4	Drama	A-Shaqiqatan	No	Yes	1
160	323	5	SERIES/EPISODES	6	Animation	Borj Al Oloum	No	Yes	1
10154	2662	44	SERIES/EPISODES	3	Drama	12 Monkeys	No	Yes	2
1569	82	1	MOVIE	0	Action	Jumanji: Welcome to the Jungle	No	Yes	2
21288	91	1	MOVIE	0	Animation	The Boss Baby	No	Yes	10
26651	854	14	SERIES/EPISODES	3	Animation	My Little Pony: Friendship Is Magic  	No	Yes	2
30342	2	0	MOVIE	0	Action	King Arthur: Legend of the word	No	Yes	1
21084	95	1	MOVIE	0	Drama	Unforgettable	No	Yes	3
1607	61	1	MOVIE	0	Animation	The Rugrats Movie	No	Yes	1
13641	23	0	SERIES/EPISODES	1	Action	Painkiller Jane	No	Yes	1
18800	96	1	MOVIE	0	Animation	Dragon Ball Z: Resurrection F	No	Yes	1
13437	3	0	MOVIE	0	Animation	Monsters Vs. Aliens	No	Yes	1
8074	2	0	MOVIE	0	Drama	Collateral Beauty	No	Yes	4
16514	18	0	MOVIE	0	Action	Vantage Point	No	Yes	1
2772	17	0	MOVIE	0	Action	Assassin's Creed	No	Yes	2
8543	3	0	MOVIE	0	Biography	Rebel in the Rye	No	Yes	1
34094	72	1	MOVIE	0	Action	Sleepless	No	Yes	1
19208	97	1	MOVIE	0	Biography	Marshall	No	Yes	1
24163	2	0	SERIES/EPISODES	0	Animation	The Penguins of Madagascar	No	Yes	1
24102	22	0	MOVIE	0	Horror	Annabelle	No	Yes	3
4543	858	14	SERIES/EPISODES	1	Family	Yo Gabba Gabba!	No	Yes	10
6463	325	5	SERIES/EPISODES	21	Animation	Borj Al Oloum	No	Yes	1
29669	2492	41	SERIES/EPISODES	3	Drama	Indama Yuzher Al Khareef	No	Yes	1
427	25	0	MOVIE	0	Crime	Inside Man	No	Yes	10
19881	2	0	MOVIE	0	Animation	Ferdinand	No	Yes	3
16190	19	0	MOVIE	0	Action	The corpion King : Rise Of A Warrior	No	Yes	3
31341	1133	18	MOVIE	0	Action	Total Recall	No	Yes	4
32422	58	0	MOVIE	0	Horror	Freddy vs. Jason	No	Yes	1
29873	2809	46	SERIES/EPISODES	19	Drama	Ward Jouri  	No	Yes	1
19412	8	0	MOVIE	0	Animation	The Little Vampire	No	Yes	1
19004	17	0	MOVIE	0	Animation	The Little Vampire	No	Yes	1
16129	7	0	MOVIE	0	Animation	Moana	No	Yes	8
20472	91	1	MOVIE	0	Animation	The Boss Baby	No	Yes	10
13029	2301	38	SERIES/EPISODES	12	Drama	Extant	No	Yes	1
6055	82	1	MOVIE	0	Action	National Treasure	No	Yes	1
18739	3	0	MOVIE	0	Comedy	Table	No	Yes	1
14049	2	0	MOVIE	0	Biography	The Birth of a Nation	No	Yes	7
19147	17	0	SERIES/EPISODES	1	Drama	Grey's Anatomy	No	Yes	6
9420	4522	75	MOVIE	0	Comedy	Going in tyle	No	Yes	3
17597	14	0	MOVIE	0	Animation	Coco	No	Yes	2
25652	109	1	MOVIE	0	Comedy	First Kiss	No	Yes	1
11357	19	0	MOVIE	0	Action	The Hobbit: The Desolation Of maug	No	Yes	2
15660	97	1	MOVIE	0	Action	Assassin's Creed	No	Yes	2
2446	91	1	MOVIE	0	Animation	The Boss Baby	No	Yes	10
4322	43	0	MOVIE	0	Animation	The Lego Batman Movie	Yes	No	1
7197	41	0	MOVIE	0	Action	The Hunter's Prayer	No	Yes	1
7258	2441	40	SERIES/EPISODES	13	Action	Blindspot	No	Yes	6
32830	65	1	MOVIE	0	Horror	Rings	No	Yes	10
6646	35	0	MOVIE	0	Horror	Rings	No	Yes	10
30546	81	1	MOVIE	0	Action	Jack Reacher: Never Go Back	No	Yes	2
11887	6	0	MOVIE	0	Animation	The Jetsons & WWE: Robo-WrestleMania!	No	Yes	1
21471	31	0	MOVIE	0	Action	Geostorm	No	Yes	3
26325	9	0	SERIES/EPISODES	12	Drama	24	Yes	No	6
3975	38	0	MOVIE	0	Action	The Amazing pider-Man	Yes	No	10
27732	88	1	MOVIE	0	Horror	A Cure for Wellness	No	Yes	3
11092	267	4	SERIES/EPISODES	12	Drama	Shades Of Blue	No	Yes	2
28956	92	1	MOVIE	0	Action	Allied	No	Yes	1
15578	91	1	MOVIE	0	Animation	The Boss Baby	No	Yes	10
14110	16	0	MOVIE	0	Drama	Collateral Beauty	No	Yes	4
29425	88	1	MOVIE	0	Documentary	An Inconvenient equel: Truth to Power	No	Yes	2
32218	13	0	SERIES/EPISODES	0	Animation	Kung Fu Panda: Legends Of Awesomeness	No	Yes	1
14987	1935	32	MOVIE	0	Animation	Tad the Lost Explorer	No	Yes	1
15721	1311	21	SERIES/EPISODES	6	Animation	Sonic Underground	No	Yes	1
12724	77	1	MOVIE	0	Action	Allied	No	Yes	1
7157	1996	33	SERIES/EPISODES	8	Drama	Caramel  	No	Yes	3
29894	141	2	MOVIE	0	Action	Transformers: Age of Extinction	No	Yes	1
6198	64	1	MOVIE	0	Animation	The Adventures of Petey and Friends	No	Yes	1
13193	30	0	SERIES/EPISODES	9	Horror	The Walking Dead	No	Yes	10
24327	7	0	MOVIE	0	Action	The Man With The Iron Fists	No	Yes	3
32443	6218	103	MOVIE	0	Animation	Moana	No	Yes	8
11744	93	1	MOVIE	0	Animation	Trolls	No	Yes	3
1590	7284	121	MOVIE	0	Biography	Open Water	No	Yes	1
2059	93	1	MOVIE	0	Animation	Trolls	No	Yes	3
27038	58	0	MOVIE	0	Comedy	Baywatch	No	Yes	6
631	13	0	MOVIE	0	Animation	The Boxtrolls	No	Yes	2
30363	41	0	MOVIE	0	Horror	Alien: Covenant	No	Yes	7
33156	87	1	MOVIE	0	Animation	Emoji Movie	No	Yes	1
22716	91	1	MOVIE	0	Animation	The Boss Baby	No	Yes	10
33381	4060	67	SERIES/EPISODES	6	Animation	Teenage Mutant Ninja Turtles	No	Yes	2
1283	16	0	MOVIE	0	Animation	Trolls	No	Yes	3
31301	36	0	MOVIE	0	Comedy	Baywatch	No	Yes	6
16680	747	12	SERIES/EPISODES	26	Animation	Marcus Level  	No	Yes	1
6219	22	0	SERIES/EPISODES	1	Comedy	Friends	No	Yes	10
14600	80	1	SERIES/EPISODES	0	Action	Black ails	No	Yes	2
6015	66	1	MOVIE	0	Animation	The Adventures of Petey and Friends	No	Yes	1
15273	48	0	MOVIE	0	Action	Police tory	No	Yes	3
27814	4	0	MOVIE	0	Drama	Billy Lynn’s Long Halftime Walk	No	Yes	1
23858	63	1	MOVIE	0	Animation	The Adventures of Petey and Friends	No	Yes	1
20371	39	0	MOVIE	0	Action	Monster Trucks	No	Yes	2
9502	99	1	MOVIE	0	Horror	Rings	No	Yes	10
27589	11	0	MOVIE	0	Horror	Mirrors	No	Yes	1
6688	87	1	MOVIE	0	Horror	Inside	No	Yes	4
23185	798	13	SERIES/EPISODES	1	Drama	Power	No	Yes	1
32912	19	0	MOVIE	0	Animation	Sinbad: Legend Of The even eas	No	Yes	1
9706	1250	20	SERIES/EPISODES	8	Comedy	Friends	No	Yes	10
33850	29	0	MOVIE	0	Drama	Unforgettable	No	Yes	3
23429	80	1	SERIES/EPISODES	1	Action	Top Gear	No	Yes	1
19229	77	1	MOVIE	0	Biography	Sully	No	Yes	6
2202	2708	45	SERIES/EPISODES	22	Drama	24	Yes	No	6
15538	40	0	SERIES/EPISODES	14	Animation	Littlest Pet hop	No	Yes	1
10787	13	0	SERIES/EPISODES	11	Comedy	House of Lies	Yes	No	1
33055	55	0	MOVIE	0	Drama	Unforgettable	No	Yes	3
10909	16	0	MOVIE	0	Action	Blitz	No	Yes	3
17149	2492	41	SERIES/EPISODES	10	Action	Vikings  	No	Yes	4
2997	1648	27	MOVIE	0	Action	Raze	No	Yes	1
24939	129	2	MOVIE	0	Animation	The Jetsons & WWE: Robo-WrestleMania!	No	Yes	1
16354	745	12	SERIES/EPISODES	27	Animation	Marcus Level  	No	Yes	1
31566	93	1	MOVIE	0	Animation	Trolls	No	Yes	3
5220	27	0	MOVIE	0	Action	Resident Evil: The Final Chapter	No	Yes	1
2671	98	1	MOVIE	0	Drama	Gifted	No	Yes	2
12989	47	0	MOVIE	0	Biography	Marshall	No	Yes	1
13458	25	0	MOVIE	0	Animation	Rio	No	Yes	1
122	75	1	MOVIE	0	Comedy	Brother Nature	No	Yes	1
25408	35	0	MOVIE	0	Action	Free Fire	No	Yes	1
23654	84	1	MOVIE	0	Animation	Surf's Up : WaveMania	No	Yes	1
30975	84	1	MOVIE	0	Animation	Resident Evil: Vendetta	No	Yes	1
7035	6	0	MOVIE	0	Animation	The Jetsons & WWE: Robo-WrestleMania!	No	Yes	1
20636	1476	24	MOVIE	0	Action	Rogue	No	Yes	1
17292	2572	42	SERIES/EPISODES	2	Horror	The train	No	Yes	1
4669	92	1	MOVIE	0	Comedy	Alexander and the Terrible  Horrible  No G	No	Yes	1
22859	317	5	MOVIE	0	Drama	Closer	No	Yes	1
11725	91	1	MOVIE	0	Animation	The Boss Baby	No	Yes	10
4404	4	0	MOVIE	0	Comedy	Baywatch	No	Yes	6
1182	62	1	MOVIE	0	Animation	Moana	No	Yes	8
20310	19	0	MOVIE	0	Animation	Howard Lovecraft and the Frozen Kingdom	No	Yes	1
28895	2099	34	SERIES/EPISODES	1	Drama	The Black Envelope  	No	Yes	1
25795	80	1	SERIES/EPISODES	3	Animation	My Little Pony: Friendship Is Magic  	No	Yes	2
13071	71	1	MOVIE	0	Action	Guardians Of The Tomb	No	Yes	1
21187	64	1	MOVIE	0	Animation	The Adventures of Petey and Friends	No	Yes	1
22512	14	0	SERIES/EPISODES	23	Drama	A-Sayeda Al Oula	No	Yes	2
9176	3	0	MOVIE	0	Family	The Chronicles of Narnia: Part	No	Yes	1
2141	59	0	MOVIE	0	Comedy	Youm Maloosh Lazma	No	Yes	10
21860	28	0	MOVIE	0	Animation	Rango	No	Yes	1
16293	74	1	MOVIE	0	Animation	Trolls	No	Yes	3
4078	76	1	MOVIE	0	Horror	The House on Pine treet	No	Yes	3
26815	1593	26	MOVIE	0	Drama	Lords of Dogtown	No	Yes	1
18638	470	7	SERIES/EPISODES	9	Action	The Flash	No	Yes	5
7504	13	0	MOVIE	0	Drama	The Messenger	No	Yes	1
1529	8	0	MOVIE	0	Action	London Heist	No	Yes	1
10726	80	1	MOVIE	0	NOT_DEFINED_IN_UMS	Dunkirk	No	Yes	1
10522	2295	38	MOVIE	0	Documentary	Ronaldo	Yes	No	10
16089	23	0	MOVIE	0	Comedy	E-Dounia Maqlouba	No	Yes	1
2406	106	1	MOVIE	0	Action	World War Z	No	Yes	1
18230	20	0	MOVIE	0	Action	Seventh on	No	Yes	2
21656	13	0	MOVIE	0	Comedy	Snatched	No	Yes	1
22125	27	0	MOVIE	0	Horror	Alien: Covenant	No	Yes	7
27284	30	0	SERIES/EPISODES	0	Action	Zoo	No	Yes	3
16150	1285	21	SERIES/EPISODES	17	Animation	Littlest Pet hop	No	Yes	1
8177	1581	26	SERIES/EPISODES	15	Comedy	Kalam A-Nas	No	Yes	4
13744	94	1	MOVIE	0	Animation	Trolls	No	Yes	3
27896	3309	55	MOVIE	0	Family	Beauty and the Beast	No	Yes	3
32056	75	1	MOVIE	0	Animation	The Mermaid Princess	No	Yes	1
33320	6	0	MOVIE	0	Action	Blitz	No	Yes	3
31118	59	0	MOVIE	0	Comedy	Baywatch	No	Yes	6
22329	2167	36	SERIES/EPISODES	16	Drama	Tareeki  	No	Yes	1
2610	616	10	SERIES/EPISODES	1	Animation	Sonic Underground	No	Yes	1
6770	31	0	SERIES/EPISODES	2	Animation	My Little Pony: Friendship Is Magic  	No	Yes	2
11195	123	2	MOVIE	0	Animation	The Jetsons & WWE: Robo-WrestleMania!	No	Yes	1
8503	118	1	MOVIE	0	Animation	The Boss Baby	No	Yes	10
25204	46	0	MOVIE	0	Action	War for the Planet of the Apes	No	Yes	3
2345	1346	22	SERIES/EPISODES	11	Comedy	Friends	Yes	No	10
16558	82	1	MOVIE	0	Animation	Cloudy With A Chance Of Meatballs	No	Yes	1
22064	74	1	MOVIE	0	Animation	The Mermaid Princess	No	Yes	1
19780	90	1	MOVIE	0	Action	The Amazing pider-Man	No	Yes	10
11460	44	0	MOVIE	0	Action	The Hunter's Prayer	No	Yes	1
5954	5	0	MOVIE	0	Animation	Shrek	No	Yes	1
34197	91	1	MOVIE	0	Comedy	Think Like A Man	No	Yes	5
14213	22	0	MOVIE	0	Horror	Inside	No	Yes	4
8646	3716	61	MOVIE	0	Drama	Snowden	Yes	No	2
29507	31	0	MOVIE	0	Animation	Surf's Up : WaveMania	No	Yes	1
14539	1089	18	SERIES/EPISODES	2	Animation	Dora the Explorer	No	Yes	3
14417	93	1	MOVIE	0	Animation	Trolls	No	Yes	3
8972	96	1	MOVIE	0	Action	Assassin's Creed	No	Yes	2
34136	3	0	MOVIE	0	Action	Clear and Present Danger	No	Yes	1
26693	557	9	SERIES/EPISODES	2	Animation	Shimmer And hine	No	Yes	2
1407	290	4	SERIES/EPISODES	26	Animation	Chuggington	Yes	No	1
5363	63	1	MOVIE	0	Horror	Lights Out	No	Yes	1
5893	20	0	MOVIE	0	Thriller	#FollowFriday	No	Yes	1
30180	2332	38	SERIES/EPISODES	1	Drama	Heroes	No	Yes	5
4894	68	1	MOVIE	0	Animation	Trolls	No	Yes	3
938	15	0	MOVIE	0	Thriller	The Boy Next Door	No	Yes	4
13010	92	1	MOVIE	0	Action	X-Men: Apocalypse	No	Yes	1
1672	2168	36	MOVIE	0	Action	Atomic Blonde	No	Yes	1
9054	36	0	MOVIE	0	Biography	Churchill	No	Yes	2
18964	2	0	MOVIE	0	Action	Prince of Persia: The ands of Time	No	Yes	1
10257	87	1	MOVIE	0	Horror	Inside	No	Yes	4
29242	2901	48	SERIES/EPISODES	26	Drama	Ya Reit	No	Yes	2
27549	125	2	MOVIE	0	Animation	Moana	No	Yes	8
734	80	1	MOVIE	0	Animation	Coco	No	Yes	2
18434	1248	20	MOVIE	0	Drama	The elfish Giant	No	Yes	1
28100	47	0	SERIES/EPISODES	1	Comedy	Friends	No	Yes	10
29976	1090	18	SERIES/EPISODES	24	Comedy	Friends	No	Yes	10
25755	92	1	MOVIE	0	Animation	Ferdinand	No	Yes	3
1733	163	2	MOVIE	0	Action	Killer Elite	Yes	No	3
7912	672	11	SERIES/EPISODES	41	Animation	Jelly Jamm  	No	Yes	1
14621	97	1	MOVIE	0	Animation	Smurfs: The Lost Village	No	Yes	1
17170	92	1	MOVIE	0	Animation	Ferdinand	No	Yes	3
29711	7	0	MOVIE	0	Action	Enemy of the tate	No	Yes	1
22737	104	1	MOVIE	0	Action	Geostorm	No	Yes	3
14152	1226	20	SERIES/EPISODES	10	Animation	Slugterra	No	Yes	2
6505	81	1	MOVIE	0	Animation	Tad the Lost Explorer	No	Yes	1
19719	114	1	MOVIE	0	Animation	Dragon Ball Z: Resurrection F	No	Yes	1
3018	114	1	MOVIE	0	Animation	Surf's Up : WaveMania	No	Yes	1
9237	7	0	MOVIE	0	Comedy	Top Five	No	Yes	1
12602	76	1	MOVIE	0	Biography	Sully	No	Yes	6
16028	2	0	MOVIE	0	Drama	My Cousin Rachel	No	Yes	1
2625	1386	23	SERIES/EPISODES	18	Animation	PAW Patrol	No	Yes	4
6314	87	1	MOVIE	0	Drama	Collateral Beauty	No	Yes	4
7418	91	1	MOVIE	0	Animation	The Boss Baby	No	Yes	10
19307	81	1	MOVIE	0	Animation	Coco	No	Yes	2
1012	306	5	MOVIE	0	Animation	Cloudy With a Chance of Meatballs	No	Yes	3
20775	82	1	MOVIE	0	Drama	The ense of an Ending	No	Yes	1
6358	8	0	MOVIE	0	Animation	Ferdinand	No	Yes	3
11660	97	1	MOVIE	0	Action	Spider-Man: Homecoming	No	Yes	2
6215	100	1	MOVIE	0	Comedy	A Dog's Purpose	No	Yes	2
9784	101	1	MOVIE	0	Comedy	Yes Man	No	Yes	1
1035	5204	86	MOVIE	0	Action	Kidnap	No	Yes	2
18287	5	0	MOVIE	0	Animation	Tad the Lost Explorer	No	Yes	1
31112	94	1	MOVIE	0	Animation	Trolls	No	Yes	3
33846	86	1	MOVIE	0	Comedy	Going in tyle	No	Yes	3
26563	1246	20	SERIES/EPISODES	14	Comedy	How I Met Your Mother	No	Yes	2
29665	89	1	MOVIE	0	Animation	The Boss Baby	No	Yes	10
25343	2745	45	MOVIE	0	Action	Salt	No	Yes	4
26811	53	0	MOVIE	0	Animation	The Adventures of Petey and Friends	No	Yes	1
23730	87	1	MOVIE	0	Comedy	E-Dounia Maqlouba	No	Yes	1
34050	31	0	MOVIE	0	Action	Instant Death	No	Yes	1
14535	81	1	MOVIE	0	NOT_DEFINED_IN_UMS	Dunkirk	No	Yes	1
20142	26	0	SERIES/EPISODES	11	Thriller	Dexter	No	Yes	10
16880	115	1	MOVIE	0	Animation	Dragon Ball Z: Resurrection F	No	Yes	1
19694	6271	104	MOVIE	0	Action	Seventh on	No	Yes	2
14657	100	1	MOVIE	0	Animation	The Jetsons & WWE: Robo-WrestleMania!	No	Yes	1
28952	41	0	MOVIE	0	Drama	Finding Forrester	No	Yes	5
27423	33	0	MOVIE	0	Action	Robin Hood	No	Yes	4
25404	489	8	MOVIE	0	Action	Jurassic Park	No	Yes	4
10905	966	16	SERIES/EPISODES	1	Animation	Dinofroz  	No	Yes	2
14270	81	1	MOVIE	0	Action	Instant Death	No	Yes	1
14676	39	0	MOVIE	0	Comedy	Fist Fight	No	Yes	2
17696	81	1	MOVIE	0	Action	Geostorm	No	Yes	3
24323	1280	21	SERIES/EPISODES	17	Animation	Littlest Pet hop	No	Yes	1
13067	13	0	MOVIE	0	Biography	Rebel in the Rye	No	Yes	1
16245	16	0	MOVIE	0	Animation	Shrek Forever After	No	Yes	1
15269	13	0	MOVIE	0	Horror	Inside	No	Yes	4
7092	65	1	MOVIE	0	Thriller	#FollowFriday	No	Yes	1
3727	13	0	MOVIE	0	Animation	Antz	No	Yes	1
21059	68	1	MOVIE	0	Action	xXx: Return of Xander Cage	No	Yes	2
21692	35	0	MOVIE	0	Thriller	Twelve Monkeys	No	Yes	6
5378	15	0	SERIES/EPISODES	0	Animation	Wolverine and the X Men  	No	Yes	1
1933	81	1	MOVIE	0	Animation	Lego cooby-Doo! Blowout Beach Bash	No	Yes	1
5010	49730	828	MOVIE	0	Documentary	Russia's Wild Arctic	No	Yes	2
5073	9	0	MOVIE	0	Drama	Three Billboards Outside Ebbing  Missouri	No	Yes	1
11782	43	0	MOVIE	0	Drama	Collateral Beauty	No	Yes	4
852	42	0	MOVIE	0	Action	Empire tate	No	Yes	1
24405	81	1	MOVIE	0	Animation	Coco	No	Yes	2
934	29	0	MOVIE	0	Action	War for the Planet of the Apes	No	Yes	3
23324	14	0	MOVIE	0	Action	Tears of The un	No	Yes	1
3094	92	1	MOVIE	0	Animation	Ferdinand	No	Yes	3
4440	100	1	MOVIE	0	Biography	The Birth of a Nation	No	Yes	7
3136	21	0	MOVIE	0	Drama	Unforgettable	No	Yes	3
11822	5141	85	MOVIE	0	Comedy	Bean	No	Yes	6
20571	69	1	MOVIE	0	Action	Guardians Of The Tomb	No	Yes	1
730	12	0	SERIES/EPISODES	4	Animation	Littlest Pet hop	No	Yes	1
3952	45	0	MOVIE	0	Animation	The Little Vampire	No	Yes	1
30012	2	0	MOVIE	0	Action	Instant Death	No	Yes	1
3279	3956	65	SERIES/EPISODES	10	Drama	Shades Of Blue	No	Yes	2
28319	168	2	MOVIE	0	Animation	The Boss Baby	No	Yes	10
25955	143	2	MOVIE	0	Animation	Emoji Movie	No	Yes	1
6520	26	0	SERIES/EPISODES	0	Documentary	WW1: The First Modern War	No	Yes	2
32521	6	0	MOVIE	0	Action	Spider-Man	No	Yes	1
9988	8	0	MOVIE	0	Drama	Aftermath	No	Yes	2
7235	3944	65	SERIES/EPISODES	1	Comedy	Ezai E-Sehha	No	Yes	3
11027	92	1	MOVIE	0	Horror	Escape Room	No	Yes	2
19898	8951	149	MOVIE	0	Action	Elephant White	No	Yes	1
29787	46	0	MOVIE	0	Action	Oblivion	No	Yes	4
17206	93	1	MOVIE	0	Drama	Aftermath	No	Yes	2
23732	89	1	MOVIE	0	Comedy	Bad Boys	No	Yes	7
10783	83	1	MOVIE	0	Action	Geostorm	No	Yes	3
21263	5533	92	MOVIE	0	Horror	Rings	No	Yes	10
13189	1763	29	SERIES/EPISODES	10	Drama	Haret Al Yahud	No	Yes	1
21122	135	2	MOVIE	0	Comedy	Billy Elliot the Musical Live	No	Yes	1
995	42	0	SERIES/EPISODES	1	Drama	Taboo	No	Yes	1
5094	1378	22	SERIES/EPISODES	6	Animation	Dora And Friends: Into The City	No	Yes	2
10926	401	6	MOVIE	0	Action	Pineapple Express	No	Yes	1
19387	22	0	MOVIE	0	Animation	The Adventures of Petey and Friends	No	Yes	1
5542	2508	41	SERIES/EPISODES	18	Drama	Sadeeqat Al Omor  	No	Yes	6
18960	435	7	SERIES/EPISODES	1	Animation	Oscar's Oasis	No	Yes	1
23875	98	1	MOVIE	0	Action	Spider-Man: Homecoming	No	Yes	2
19103	34	0	MOVIE	0	Action	Trespass Against Us	No	Yes	1
20081	786	13	SERIES/EPISODES	6	Thriller	Hannibal	No	Yes	3
19143	2370	39	SERIES/EPISODES	4	Horror	The Walking Dead	No	Yes	10
32990	26	0	MOVIE	0	Comedy	Tambola	No	Yes	1
17431	1008	16	SERIES/EPISODES	11	Horror	The train	No	Yes	1
8703	64	1	MOVIE	0	Horror	The House on Pine treet	No	Yes	3
8417	130	2	MOVIE	0	Animation	Dragon Ball Z: Resurrection F	No	Yes	1
30849	302	5	SERIES/EPISODES	8	Thriller	Dexter	No	Yes	10
31379	30	0	MOVIE	0	Animation	Moana	No	Yes	8
30319	60	1	MOVIE	0	Animation	The Little Vampire	No	Yes	1
24548	2	0	MOVIE	0	Comedy	Why Him	No	Yes	2
2177	92	1	MOVIE	0	Action	The Accountant	No	Yes	2
31053	76	1	SERIES/EPISODES	23	Drama	Tareeki  	No	Yes	1
31440	149	2	MOVIE	0	Comedy	Why Did I Get Married Too?	No	Yes	3
4808	92	1	MOVIE	0	Animation	Ferdinand	No	Yes	3
14291	90	1	MOVIE	0	Animation	The Boss Baby	No	Yes	10
8520	90	1	MOVIE	0	Family	RV: Runaway Vacation	No	Yes	3
29074	92	1	MOVIE	0	Animation	Ferdinand	No	Yes	3
23772	13	0	MOVIE	0	Action	Jurassic Park III	No	Yes	1
200	4500	75	MOVIE	0	Comedy	22 Jump treet	No	Yes	3
7704	8	0	MOVIE	0	Drama	Blade Runner	No	Yes	1
17227	120	2	MOVIE	0	Drama	The Happening	No	Yes	1
14760	73	1	MOVIE	0	Animation	The Mermaid Princess	No	Yes	1
7786	8	0	MOVIE	0	Drama	Three Billboards Outside Ebbing  Missouri	No	Yes	1
22672	87	1	MOVIE	0	Action	Kidnap	No	Yes	2
25221	21	0	MOVIE	0	Horror	Rings	No	Yes	10
19919	76	1	MOVIE	0	Animation	Rio	No	Yes	1
10131	5	0	MOVIE	0	Action	Blood Father	No	Yes	1
26750	2100	35	SERIES/EPISODES	9	Thriller	Damages	No	Yes	4
20184	1321	22	SERIES/EPISODES	16	Animation	Blaze And The Monster Machines	No	Yes	4
10253	137	2	MOVIE	0	Action	Rogue One: A tar Wars tory	No	Yes	1
2015	4186	69	SERIES/EPISODES	5	Action	Blindspot	No	Yes	6
3157	104	1	MOVIE	0	Animation	Moana	No	Yes	8
6440	91	1	MOVIE	0	Animation	The Boss Baby	No	Yes	10
17839	1280	21	SERIES/EPISODES	5	Comedy	Friends	No	Yes	10
21061	40	0	MOVIE	0	Action	Slow West	No	Yes	1
9559	174	2	MOVIE	0	Action	Sleepless	No	Yes	1
7010	1085	18	MOVIE	0	Action	Men In Black	No	Yes	3
18613	1311	21	SERIES/EPISODES	6	Comedy	Friends	No	Yes	10
14596	5570	92	MOVIE	0	Comedy	Daddy Day Camp	No	Yes	2
16899	58	0	MOVIE	0	Comedy	Baywatch	No	Yes	6
12272	3	0	MOVIE	0	Action	The Man with the Iron Heart	No	Yes	1
20041	15	0	SERIES/EPISODES	18	Drama	Wannous	No	Yes	2
30807	17	0	MOVIE	0	Family	Little avages	No	Yes	1
36	64	1	MOVIE	0	Action	The Accountant	No	Yes	2
19347	3163	52	MOVIE	0	Action	Robin Hood	No	Yes	4
4564	110	1	MOVIE	0	Comedy	Diary of a Wimpy Kid	No	Yes	1
9601	4	0	MOVIE	0	Thriller	Broken Vows	No	Yes	2
22203	31	0	MOVIE	0	Action	Jack Reacher: Never Go Back	No	Yes	2
29524	556	9	SERIES/EPISODES	7	Comedy	Kalam A-Nas	No	Yes	4
30176	90	1	MOVIE	0	Animation	The Boss Baby	No	Yes	10
28544	3	0	MOVIE	0	Animation	The Jetsons & WWE: Robo-WrestleMania!	No	Yes	1
6091	91	1	MOVIE	0	Thriller	Broken Vows	No	Yes	2
32685	6	0	MOVIE	0	Thriller	Drive Angry	No	Yes	10
21530	94	1	MOVIE	0	Drama	The hape of Water	No	Yes	3
2402	58	0	MOVIE	0	Animation	Madagascar	No	Yes	1
14005	68	1	MOVIE	0	Animation	Storks	No	Yes	1
7540	12	0	MOVIE	0	Action	Spider-Man	No	Yes	1
23385	8	0	MOVIE	0	Drama	Donnie Brasco	No	Yes	2
30462	21	0	SERIES/EPISODES	0	Action	Six	No	Yes	2
13923	80	1	MOVIE	0	Action	Geostorm	No	Yes	3
13088	93	1	MOVIE	0	Drama	The hape of Water	No	Yes	3
17124	54	0	MOVIE	0	Animation	The Jetsons & WWE: Robo-WrestleMania!	No	Yes	1
17717	48	0	SERIES/EPISODES	1	Comedy	House of Lies	No	Yes	1
19185	2	0	MOVIE	0	Animation	Dragon Ball Z: Resurrection F	No	Yes	1
15433	40	0	MOVIE	0	Action	Vigilante Diaries	No	Yes	1
25017	90	1	MOVIE	0	Animation	The Boss Baby	No	Yes	10
18920	975	16	MOVIE	0	Thriller	The Grey	No	Yes	8
34071	17	0	MOVIE	0	Action	Pirates of The Caribbean: The Curse of…	No	Yes	1
19715	87	1	MOVIE	0	Animation	Trolls	No	Yes	3
23425	62	1	MOVIE	0	Biography	The Founder	No	Yes	5
3483	26	0	MOVIE	0	Comedy	E-Dounia Maqlouba	No	Yes	1
17656	1261	21	SERIES/EPISODES	9	Comedy	Friends	No	Yes	10
13271	59	0	SERIES/EPISODES	1	Animation	Pingu	No	Yes	1
29053	7	0	MOVIE	0	Drama	Collateral Beauty	No	Yes	4
1975	2468	41	SERIES/EPISODES	4	Drama	House	No	Yes	10
1260	4	0	MOVIE	0	Biography	The Pursuit of Happyness	No	Yes	1
28157	21	0	MOVIE	0	Action	The Finest Hours	No	Yes	1
31909	95	1	MOVIE	0	Animation	Captain Underpants: The First Epic Movie	No	Yes	1
1403	86	1	MOVIE	0	Action	The Amazing pider-Man	No	Yes	10
3178	126	2	MOVIE	0	Horror	You're Next	No	Yes	3
13170	72	1	MOVIE	0	Animation	Moana	No	Yes	8
29625	9	0	MOVIE	0	Animation	The Jetsons & WWE: Robo-WrestleMania!	No	Yes	1
19450	1385	23	SERIES/EPISODES	6	Animation	PAW Patrol	No	Yes	4
14842	189	3	MOVIE	0	Animation	The Lego Movie	No	Yes	2
20428	5192	86	SERIES/EPISODES	9	Action	Vikings	No	Yes	7
3239	6150	102	MOVIE	0	Animation	The Boss Baby	No	Yes	10
32765	2	0	MOVIE	0	Animation	The Adventures of Petey and Friends	No	Yes	1
1159	23	0	MOVIE	0	Action	Muppets Most Wanted	No	Yes	1
5788	90	1	MOVIE	0	Animation	The Boss Baby	No	Yes	10
11090	1344	22	SERIES/EPISODES	10	Animation	The Penguins of Madagascar	No	Yes	1
28586	14	0	MOVIE	0	Animation	The Nut Job : Nutty by Nature	No	Yes	1
26241	38	0	MOVIE	0	Action	Pineapple Express	Yes	No	1
8459	195	3	SERIES/EPISODES	15	Animation	Nan and Lili	No	Yes	1
26384	2389	39	SERIES/EPISODES	8	Horror	The Walking Dead	Yes	No	10
9866	10	0	MOVIE	0	Action	Bangkok Adrenaline	No	Yes	1
11559	87	1	MOVIE	0	Animation	Scooby Doo! haggy's howdown	No	Yes	1
27587	743	12	MOVIE	0	Action	47 Ronin	No	Yes	4
18043	99	1	MOVIE	0	Documentary	An Inconvenient equel: Truth to Power	No	Yes	2
29789	64	1	MOVIE	0	Animation	The Adventures of Petey and Friends	No	Yes	1
8072	93	1	MOVIE	0	Biography	Genius	No	Yes	1
18777	72	1	MOVIE	0	Animation	Moana	No	Yes	8
24569	3	0	MOVIE	0	Animation	Tom & Jerry: Willy Wonka and the Chocolate	No	Yes	1
6602	35	0	MOVIE	0	Animation	Tad the Lost Explorer	No	Yes	1
4890	92	1	MOVIE	0	Animation	The Boss Baby	No	Yes	10
21877	2	0	MOVIE	0	Action	Underworld: Awakening	No	Yes	1
10764	2482	41	SERIES/EPISODES	20	Drama	Ya Reit	No	Yes	2
16977	6	0	MOVIE	0	Thriller	Red Dragon	No	Yes	9
13639	15	0	MOVIE	0	Action	Kingsman: The Golden Circle	No	Yes	1
25711	89	1	MOVIE	0	Comedy	The House	Yes	No	1
2972	9	0	MOVIE	0	Thriller	Whitewash	No	Yes	1
11008	21	0	MOVIE	0	Action	Oblivion	No	Yes	4
25976	91	1	MOVIE	0	Animation	The Boss Baby	No	Yes	10
22956	446	7	SERIES/EPISODES	36	Animation	Oscar's Oasis	No	Yes	1
18165	95	1	MOVIE	0	Animation	Captain Underpants: The First Epic Movie	No	Yes	1
23427	88	1	MOVIE	0	Horror	Inside	No	Yes	4
10335	98	1	MOVIE	0	Documentary	An Inconvenient equel: Truth to Power	No	Yes	2
15740	2605	43	SERIES/EPISODES	10	Horror	American Horror tory	No	Yes	2
8173	2032	33	SERIES/EPISODES	9	Horror	The Walking Dead	No	Yes	10
3933	97	1	MOVIE	0	Animation	The Boss Baby	No	Yes	10
16779	46	0	MOVIE	0	Animation	Surf's Up : WaveMania	No	Yes	1
8358	48	0	MOVIE	0	Animation	Cars	No	Yes	2
15168	74	1	MOVIE	0	Animation	The Mermaid Princess	No	Yes	1
2322	55	0	SERIES/EPISODES	7	Comedy	Friends	No	Yes	10
13292	7	0	MOVIE	0	Action	Guardians of the Galaxy  Vol.	No	Yes	1
18615	73	1	MOVIE	0	Biography	Rebel in the Rye	No	Yes	1
19084	12	0	MOVIE	0	Action	XXX	No	Yes	1
10865	1611	26	SERIES/EPISODES	15	Animation	Dinofroz  	No	Yes	2
20388	3147	52	SERIES/EPISODES	6	Drama	Homeland	Yes	No	3
179	29	0	MOVIE	0	Animation	Alvin and the Chipmunks: The queakquel	No	Yes	1
16005	5	0	MOVIE	0	Animation	The Polar Express	No	Yes	1
32033	94	1	MOVIE	0	Animation	The pongeBob Movie: ponge Out of Water	No	Yes	1
12783	45	0	SERIES/EPISODES	0	Horror	American Horror tory	No	Yes	2
8684	54	0	MOVIE	0	Animation	Moana	No	Yes	8
13313	3912	65	SERIES/EPISODES	5	Drama	Homeland	Yes	No	3
33848	31	0	SERIES/EPISODES	1	Thriller	Hannibal	Yes	No	3
24121	114	1	MOVIE	0	Animation	Dragon Ball Z: Resurrection F	No	Yes	1
10438	100	1	MOVIE	0	Horror	Rings	No	Yes	10
32439	81	1	MOVIE	0	NOT_DEFINED_IN_UMS	Dunkirk	No	Yes	1
31890	2875	47	MOVIE	0	Animation	Puss in Boots	No	Yes	1
12964	112	1	MOVIE	0	Animation	Trolls	No	Yes	3
28077	58	0	MOVIE	0	Animation	Shrek The Third	No	Yes	1
23652	7	0	MOVIE	0	NOT_DEFINED_IN_UMS	Dunkirk	No	Yes	1
10234	2421	40	SERIES/EPISODES	2	Drama	Unforgettable	No	Yes	3
25589	746	12	SERIES/EPISODES	44	Animation	Marcus Level  	No	Yes	1
22428	91	1	MOVIE	0	Animation	The Boss Baby	No	Yes	10
22571	2332	38	SERIES/EPISODES	3	Drama	Al Hob Al Halal	No	Yes	1
31339	91	1	MOVIE	0	Animation	The Boss Baby	No	Yes	10
15576	33	0	MOVIE	0	Horror	The Borderlands	No	Yes	1
31135	2512	41	SERIES/EPISODES	3	Action	Vikings	No	Yes	7
24590	61	1	MOVIE	0	Animation	Shrek	No	Yes	1
17799	1670	27	SERIES/EPISODES	2	Comedy	Kalam A-Nas	No	Yes	4
21957	17	0	MOVIE	0	Drama	Forrest Gump	No	Yes	1
18676	29	0	MOVIE	0	Animation	Ferdinand	No	Yes	3
5544	2	0	MOVIE	0	NOT_DEFINED_IN_UMS	Dunkirk	No	Yes	1
26548	52	0	MOVIE	0	Animation	Storks	No	Yes	1
12396	729	12	MOVIE	0	Animation	Ice Age: The Meltdown	No	Yes	1
15719	100	1	MOVIE	0	Documentary	An Inconvenient equel: Truth to Power	No	Yes	2
8337	2416	40	SERIES/EPISODES	9	Action	Teen Wolf	No	Yes	10
1262	4	0	MOVIE	0	Animation	The Mermaid Princess	No	Yes	1
5319	10	0	MOVIE	0	Drama	Finding Forrester	No	Yes	5
20817	84	1	MOVIE	0	Animation	Surf's Up : WaveMania	No	Yes	1
25793	15	0	MOVIE	0	Animation	Batman: Gotham by Gaslight	No	Yes	1
31625	88	1	MOVIE	0	Drama	Collateral Beauty	No	Yes	4
20613	1380	23	SERIES/EPISODES	2	Animation	Dora the Explorer	No	Yes	3
7563	24	0	MOVIE	0	Documentary	Russia's Wild Arctic	No	Yes	2
2404	91	1	MOVIE	0	Animation	The Boss Baby	No	Yes	10
17820	13	0	MOVIE	0	Animation	Hotel Transylvania	No	Yes	2
14985	12	0	SERIES/EPISODES	1	Animation	Our Cartoon President	No	Yes	1
6421	106	1	MOVIE	0	Action	Assassin's Creed	No	Yes	2
7828	2495	41	SERIES/EPISODES	21	Drama	Heroes	No	Yes	5
21204	10	0	MOVIE	0	Animation	The Lego Movie	No	Yes	2
4606	100	1	SERIES/EPISODES	1	Action	The Flash	No	Yes	5
23103	72	1	MOVIE	0	Animation	Moana	No	Yes	8
18554	4	0	MOVIE	0	Biography	Lion	No	Yes	5
22245	879	14	SERIES/EPISODES	1	Drama	Hell On Wheels	No	Yes	2
27751	25	0	MOVIE	0	Family	The BFG	No	Yes	10
7155	95	1	MOVIE	0	Drama	Seabiscuit	No	Yes	1
27528	21	0	SERIES/EPISODES	1	Drama	Taboo	No	Yes	1
33095	44	0	MOVIE	0	Animation	Tom and Jerry: The Lost Dragon	No	Yes	1
8278	1291	21	SERIES/EPISODES	23	Animation	Slugterra	No	Yes	2
22449	3	0	MOVIE	0	Comedy	Blank Check	No	Yes	4
13986	165	2	MOVIE	0	Animation	The Nut Job : Nutty by Nature	No	Yes	1
22430	31	0	MOVIE	0	Animation	Tad the Lost Explorer	No	Yes	1
25917	87	1	MOVIE	0	Thriller	Our Kind Of Traitor	Yes	No	1
9216	2331	38	SERIES/EPISODES	7	Horror	Bates Motel	No	Yes	1
33114	87	1	MOVIE	0	Animation	Surf's Up : WaveMania	No	Yes	1
22447	2	0	MOVIE	0	Animation	The Nut Job : Nutty by Nature	No	Yes	1
29404	147	2	MOVIE	0	Thriller	Identity	No	Yes	2
9685	90	1	MOVIE	0	Comedy	The Mexican	No	Yes	1
33360	829	13	SERIES/EPISODES	2	Animation	Puppy In My Pocket  	No	Yes	1
26466	93	1	MOVIE	0	Animation	Trolls	No	Yes	3
4118	77	1	MOVIE	0	Animation	Hotel Transylvania	No	Yes	2
31280	19	0	MOVIE	0	Comedy	Baywatch	No	Yes	6
20819	92	1	MOVIE	0	Animation	The Boss Baby	No	Yes	10
16659	98	1	MOVIE	0	Action	Spider-Man: Homecoming	No	Yes	2
16657	1379	22	SERIES/EPISODES	8	Animation	Dora the Explorer	No	Yes	3
18941	893	14	SERIES/EPISODES	6	Family	Yo Gabba Gabba!	No	Yes	10
160	195	3	SERIES/EPISODES	27	Animation	Nan and Lili	No	Yes	1
10154	331	5	SERIES/EPISODES	6	Horror	Bates Motel	No	Yes	1
1569	100	1	MOVIE	0	Drama	The hape of Water	No	Yes	3
21288	75	1	MOVIE	0	Animation	The Mermaid Princess	No	Yes	1
26651	1328	22	SERIES/EPISODES	16	Animation	My Little Pony: Friendship Is Magic  	No	Yes	2
30342	5	0	MOVIE	0	Biography	Churchill	No	Yes	2
21084	96	1	MOVIE	0	Action	War for the Planet of the Apes	No	Yes	3
1607	2192	36	SERIES/EPISODES	13	Drama	Sadeeqat Al Omor  	No	Yes	6
13641	2015	33	SERIES/EPISODES	1	Horror	Masters of Horror	No	Yes	1
18800	801	13	MOVIE	0	Animation	Moana	No	Yes	8
13702	74	1	MOVIE	0	Comedy	Tambola	No	Yes	1
8074	23	0	MOVIE	0	Comedy	Baywatch	No	Yes	6
16514	5	0	MOVIE	0	Thriller	Agenda	No	Yes	1
2772	79	1	MOVIE	0	Thriller	Brimstone	No	Yes	3
8543	4	0	MOVIE	0	Action	Harry Potter - Part	No	Yes	1
34094	7295	121	MOVIE	0	Action	Sleepless	No	Yes	1
19208	99	1	MOVIE	0	Documentary	An Inconvenient equel: Truth to Power	No	Yes	2
24163	50	0	MOVIE	0	Animation	The Adventures of Petey and Friends	No	Yes	1
24102	44	0	MOVIE	0	Drama	Secretariat	No	Yes	1
6463	14	0	SERIES/EPISODES	3	Animation	Borj Al Oloum	No	Yes	1
29669	1750	29	SERIES/EPISODES	2	Drama	Al Kasr Al Kabeer	No	Yes	3
427	59	0	MOVIE	0	Comedy	Baywatch	No	Yes	6
19942	69	1	MOVIE	0	Drama	Unforgettable	No	Yes	3
19881	87	1	MOVIE	0	Comedy	Going in tyle	No	Yes	3
16190	36	0	MOVIE	0	Drama	Monster’s Ball	No	Yes	1
31341	27	0	SERIES/EPISODES	12	Action	Vikings	No	Yes	7
32422	5	0	MOVIE	0	Horror	Lights Out	No	Yes	1
29873	47	0	SERIES/EPISODES	1	Drama	Unforgettable	No	Yes	3
19412	75	1	MOVIE	0	Animation	The Little Vampire	No	Yes	1
19004	91	1	MOVIE	0	Drama	Unforgettable	No	Yes	3
16129	3	0	MOVIE	0	Action	Allied	No	Yes	1
20472	1336	22	SERIES/EPISODES	1	Animation	Caillou	No	Yes	1
13029	207	3	SERIES/EPISODES	22	Drama	Beauty and the Beast	No	Yes	3
6055	64	1	MOVIE	0	Comedy	Baby  Baby  Baby	No	Yes	1
32891	10	0	MOVIE	0	Drama	Billy Lynn’s Long Halftime Walk	No	Yes	1
26712	3170	52	SERIES/EPISODES	1	Drama	Power	No	Yes	1
30750	74	1	MOVIE	0	Action	Oblivion	No	Yes	4
19147	112	1	MOVIE	0	Biography	Ray	No	Yes	3
9420	44	0	MOVIE	0	Documentary	An Inconvenient equel: Truth to Power	No	Yes	2
17597	20	0	MOVIE	0	Comedy	E-Dounia Maqlouba	No	Yes	1
25652	52	0	MOVIE	0	Comedy	Easy A	No	Yes	2
19616	2568	42	SERIES/EPISODES	11	Drama	Quantico	Yes	No	2
11357	16	0	SERIES/EPISODES	1	Action	Justified	No	Yes	1
15660	78	1	MOVIE	0	Biography	Sully	No	Yes	6
2446	72	1	MOVIE	0	Animation	Moana	No	Yes	8
4322	78	1	MOVIE	0	Action	Sleight	Yes	No	1
7197	108	1	MOVIE	0	Horror	Alien: Covenant	No	Yes	7
7258	2614	43	SERIES/EPISODES	5	Drama	Al Kasr Al Kabeer	No	Yes	3
32830	88	1	MOVIE	0	Comedy	Going in tyle	No	Yes	3
6646	60	1	MOVIE	0	Comedy	Baywatch	No	Yes	6
23286	1621	27	MOVIE	0	Comedy	Baywatch	No	Yes	6
11887	3	0	MOVIE	0	Thriller	Broken Vows	No	Yes	2
21471	68	1	MOVIE	0	Drama	Three Billboards Outside Ebbing  Missouri	No	Yes	1
26325	27773	462	SERIES/EPISODES	21	Drama	24	Yes	No	6
3975	547	9	SERIES/EPISODES	5	Animation	SpongeBob quarePants	Yes	No	2
10684	102	1	MOVIE	0	Animation	The Adventures of Petey and Friends	No	Yes	1
11092	1040	17	SERIES/EPISODES	8	Drama	24: Live Another Day	No	Yes	1
25938	27	0	MOVIE	0	Action	Nitro Circus: The Movie	No	Yes	1
28956	80	1	MOVIE	0	Action	Geostorm	No	Yes	3
28323	2108	35	MOVIE	0	Action	Killer Elite	No	Yes	3
15578	91	1	MOVIE	0	Animation	The Boss Baby	No	Yes	10
14110	10	0	MOVIE	0	Drama	Collateral Beauty	No	Yes	4
31974	93	1	MOVIE	0	Animation	Trolls	No	Yes	3
29425	37	0	MOVIE	0	Comedy	Why Him	No	Yes	2
32218	14	0	MOVIE	0	Biography	Rebel in the Rye	No	Yes	1
14987	83	1	MOVIE	0	Thriller	Life	No	Yes	4
5525	12	0	MOVIE	0	Comedy	Baywatch	No	Yes	6
15721	1368	22	SERIES/EPISODES	18	Animation	Teenage Mutant Ninja Turtles	No	Yes	2
12724	88	1	MOVIE	0	Comedy	A Thousand Words	No	Yes	1
7157	2301	38	SERIES/EPISODES	30	Drama	Caramel  	No	Yes	3
29894	62	1	MOVIE	0	Animation	Batman and Harley Quinn	No	Yes	1
6198	234	3	SERIES/EPISODES	25	Animation	Wolverine and the X Men  	No	Yes	1
13193	778	12	SERIES/EPISODES	24	Drama	Sadeeqat Al Omor  	No	Yes	6
24327	3286	54	SERIES/EPISODES	4	Action	Agents of .H.I.E.L.D.	No	Yes	5
32443	11	0	MOVIE	0	Action	First trike	No	Yes	1
11744	72	1	MOVIE	0	Animation	Moana	No	Yes	8
1590	3024	50	MOVIE	0	Comedy	The House Bunny	No	Yes	1
2059	73	1	MOVIE	0	Animation	Moana	No	Yes	8
27038	58	0	MOVIE	0	Comedy	Baywatch	No	Yes	6
631	3	0	MOVIE	0	Drama	My Cousin Rachel	No	Yes	1
30363	1904	31	SERIES/EPISODES	1	Family	Allo Marhaba	No	Yes	1
22716	87	1	MOVIE	0	Comedy	E-Dounia Maqlouba	No	Yes	1
33381	4	0	SERIES/EPISODES	1	Animation	Littlest Pet hop  	No	Yes	1
1283	58	0	MOVIE	0	Animation	The Mermaid Princess	No	Yes	1
31301	53	0	MOVIE	0	Comedy	Baywatch	No	Yes	6
16680	2942	49	SERIES/EPISODES	17	Thriller	Al ayyad  	No	Yes	1
6219	72	1	SERIES/EPISODES	0	Thriller	Aquarius   	No	Yes	1
14600	2	0	MOVIE	0	Drama	Gifted	No	Yes	2
6015	88	1	MOVIE	0	Drama	Collateral Beauty	No	Yes	4
15273	74	1	MOVIE	0	Drama	Despite the Falling now	No	Yes	1
27814	37	0	MOVIE	0	Drama	Billy Lynn’s Long Halftime Walk	No	Yes	1
23858	64	1	MOVIE	0	Animation	The Adventures of Petey and Friends	No	Yes	1
20371	6	0	MOVIE	0	Horror	Friday the th: A New Beginning	No	Yes	1
9502	99	1	MOVIE	0	Horror	Rings	No	Yes	10
27589	81	1	MOVIE	0	Horror	Rings	No	Yes	10
6688	24	0	MOVIE	0	Drama	Unforgettable	No	Yes	3
23185	36	0	SERIES/EPISODES	2	Thriller	Hannibal	No	Yes	3
32912	10	0	MOVIE	0	Animation	Batman: Gotham by Gaslight	No	Yes	1
9706	477	7	MOVIE	0	Action	Total Recall	No	Yes	4
33850	9	0	MOVIE	0	Action	The Hunter's Prayer	No	Yes	1
23429	388	6	MOVIE	0	Action	Empire tate	No	Yes	1
19229	100	1	MOVIE	0	Biography	The Birth of a Nation	No	Yes	7
2202	1816	30	SERIES/EPISODES	2	Horror	The Walking Dead	Yes	No	10
15538	1322	22	SERIES/EPISODES	16	Animation	Blaze And The Monster Machines	No	Yes	4
10787	10	0	SERIES/EPISODES	2	Action	Justified	Yes	No	1
33055	60	1	MOVIE	0	Animation	The Boss Baby	No	Yes	10
10909	1362	22	SERIES/EPISODES	1	Action	Vikings	No	Yes	7
17149	18	0	SERIES/EPISODES	0	Comedy	Al Bayt Al Kabeer	No	Yes	1
2997	896	14	MOVIE	0	Comedy	All is Bright	No	Yes	1
24939	58	0	MOVIE	0	Action	Salt	No	Yes	4
16354	744	12	SERIES/EPISODES	44	Animation	Marcus Level  	No	Yes	1
31566	80	1	MOVIE	0	Action	Vigilante Diaries	No	Yes	1
5220	82	1	MOVIE	0	Drama	Goat	No	Yes	1
2671	38	0	MOVIE	0	Drama	The Fault in Our tars	No	Yes	1
12989	99	1	MOVIE	0	Animation	The Nut Job : Nutty by Nature	No	Yes	1
13458	98	1	MOVIE	0	Horror	The Exorcism Of Emily Rose	No	Yes	1
122	95	1	MOVIE	0	Comedy	Why Him	No	Yes	2
25408	34	0	MOVIE	0	Biography	The Founder	No	Yes	5
23654	11	0	MOVIE	0	Animation	The Boss Baby	No	Yes	10
30975	50	0	MOVIE	0	Animation	The Lego Batman Movie	No	Yes	1
16823	88	1	MOVIE	0	Animation	The Boss Baby	No	Yes	10
20636	6453	107	MOVIE	0	Action	Hammer of the Gods	No	Yes	1
17292	2762	46	SERIES/EPISODES	9	Action	The Flash	No	Yes	5
4669	141	2	MOVIE	0	Comedy	Life As We Know It	No	Yes	1
22859	86	1	SERIES/EPISODES	1	Family	Yo Gabba Gabba!	No	Yes	10
15620	93	1	MOVIE	0	Animation	Ferdinand	No	Yes	3
4404	7	0	MOVIE	0	Comedy	Baywatch	No	Yes	6
10236	105	1	MOVIE	0	Family	The BFG	No	Yes	10
20310	9	0	MOVIE	0	Comedy	Table	No	Yes	1
28895	1508	25	SERIES/EPISODES	24	Drama	The Black Envelope  	No	Yes	1
25795	2321	38	SERIES/EPISODES	1	Drama	Doctor Amrad Nesa	No	Yes	1
13071	28	0	MOVIE	0	Biography	Rebel in the Rye	No	Yes	1
21187	79	1	MOVIE	0	Animation	Coco	No	Yes	2
22512	68	1	MOVIE	0	Comedy	Blank Check	No	Yes	4
9176	95	1	MOVIE	0	Drama	The Light Between Oceans	No	Yes	1
2141	78	1	MOVIE	0	Animation	The Boss Baby	No	Yes	10
4486	88	1	MOVIE	0	Drama	100 treets	No	Yes	1
16293	46	0	MOVIE	0	Animation	The Boss Baby	No	Yes	10
4078	36	0	SERIES/EPISODES	0	Family	Yo Gabba Gabba!	No	Yes	10
26815	2	0	MOVIE	0	Thriller	Red Dragon	No	Yes	9
18638	1925	32	SERIES/EPISODES	11	Action	The Flash	No	Yes	5
24674	142	2	MOVIE	0	Animation	Surf's Up : WaveMania	No	Yes	1
1529	87	1	MOVIE	0	Comedy	Going in tyle	No	Yes	3
10726	81	1	MOVIE	0	NOT_DEFINED_IN_UMS	Dunkirk	No	Yes	1
10522	34	0	MOVIE	0	Animation	DCU Justice League: War	Yes	No	1
2406	1823	30	MOVIE	0	Action	Transformers: Age of Extinction	No	Yes	1
18230	9	0	MOVIE	0	Animation	The Boxtrolls	No	Yes	2
21656	4	0	MOVIE	0	Action	War for the Planet of the Apes	No	Yes	3
22125	17	0	MOVIE	0	Documentary	Born in China	No	Yes	1
27284	73	1	MOVIE	0	Animation	Moana	No	Yes	8
16150	20	0	SERIES/EPISODES	10	Animation	PAW Patrol	No	Yes	4
8177	2430	40	SERIES/EPISODES	21	Comedy	Kalam A-Nas	No	Yes	4
13744	102	1	MOVIE	0	Animation	The Jetsons & WWE: Robo-WrestleMania!	No	Yes	1
27896	63	1	MOVIE	0	Animation	Batman and Harley Quinn	No	Yes	1
32056	74	1	MOVIE	0	Animation	The Mermaid Princess	No	Yes	1
33320	1631	27	MOVIE	0	Action	Roadkill	No	Yes	1
31118	91	1	MOVIE	0	Animation	The Boss Baby	No	Yes	10
22329	37805	630	SERIES/EPISODES	10	Drama	Tareeki  	No	Yes	1
2610	43	0	MOVIE	0	Animation	The Mermaid Princess	No	Yes	1
6770	9	0	SERIES/EPISODES	0	Comedy	iCarly	No	Yes	1
11195	14	0	MOVIE	0	Drama	Collateral Beauty	No	Yes	4
8503	65	1	MOVIE	0	Animation	The Adventures of Petey and Friends	No	Yes	1
25204	26	0	MOVIE	0	Comedy	Top Five	No	Yes	1
22594	7	0	MOVIE	0	Animation	The Nut Job : Nutty by Nature	No	Yes	1
2345	3080	51	SERIES/EPISODES	16	Drama	Grey's Anatomy	Yes	No	6
16558	1573	26	SERIES/EPISODES	1	Drama	Al Hob Al Halal	No	Yes	1
9563	38	0	MOVIE	0	Animation	The Little Vampire	No	Yes	1
19780	99	1	MOVIE	0	Action	Spider-Man: Homecoming	No	Yes	2
11460	2	0	MOVIE	0	Comedy	Snatched	No	Yes	1
5954	133	2	MOVIE	0	Animation	Madagascar : Europe's Most Wanted	No	Yes	1
34197	60	1	MOVIE	0	Comedy	Easy A	No	Yes	2
14213	98	1	MOVIE	0	Documentary	An Inconvenient equel: Truth to Power	No	Yes	2
8646	94	1	MOVIE	0	Animation	The Boss Baby	Yes	No	10
3079	48	0	MOVIE	0	Animation	The Wild	No	Yes	1
14539	3300	55	SERIES/EPISODES	7	Crime	Damages	No	Yes	4
14417	7	0	MOVIE	0	Comedy	Youm Maloosh Lazma	No	Yes	10
23940	1965	32	MOVIE	0	Comedy	50 First Dates	No	Yes	2
8972	52	0	MOVIE	0	Horror	Rings	No	Yes	10
34136	81	1	MOVIE	0	Biography	Lion	No	Yes	5
26693	29	0	SERIES/EPISODES	12	Animation	Puppy In My Pocket  	No	Yes	1
1407	137	2	SERIES/EPISODES	33	Animation	Doodlez	Yes	No	1
5893	51	0	MOVIE	0	Animation	Shrek The Third	No	Yes	1
30180	43	0	SERIES/EPISODES	0	Drama	Power	No	Yes	1
4894	76	1	MOVIE	0	Horror	Rings	No	Yes	10
26958	104	1	MOVIE	0	Drama	Collateral Beauty	No	Yes	4
15559	98	1	MOVIE	0	Comedy	The Grand Budapest Hotel	No	Yes	1
23206	87	1	MOVIE	0	Family	Over the Hedge	No	Yes	1
13010	82	1	MOVIE	0	Action	CHIPS	No	Yes	1
1672	5837	97	MOVIE	0	Animation	Finding Nemo	No	Yes	1
20657	91	1	MOVIE	0	Animation	Ferdinand	No	Yes	3
9054	93	1	MOVIE	0	Animation	The Boss Baby	No	Yes	10
18964	34	0	MOVIE	0	Comedy	E-Dounia Maqlouba	No	Yes	1
10257	91	1	MOVIE	0	Animation	The Boss Baby	No	Yes	10
29242	106	1	SERIES/EPISODES	1	Drama	Al Kabous  	No	Yes	1
27549	6216	103	MOVIE	0	Animation	Moana	No	Yes	8
6301	787	13	SERIES/EPISODES	7	Animation	Min Qesas As-Saliheen	No	Yes	1
734	7	0	MOVIE	0	Animation	Ferdinand	No	Yes	3
18434	541	9	MOVIE	0	Action	Northmen - A Viking aga	No	Yes	1
28100	1881	31	SERIES/EPISODES	24	Drama	Chello  	No	Yes	1
29976	1189	19	SERIES/EPISODES	2	Comedy	Friends	No	Yes	10
25755	75	1	MOVIE	0	Animation	Wall E	No	Yes	1
1733	27	0	MOVIE	0	Action	Police tory	Yes	No	3
7912	86	1	MOVIE	0	Animation	Emoji Movie	No	Yes	1
14621	134	2	MOVIE	0	Action	Transformers: Age of Extinction	No	Yes	1
2814	65	1	MOVIE	0	Action	xXx: Return of Xander Cage	No	Yes	2
29711	21	0	MOVIE	0	Thriller	Our Kind Of Traitor	No	Yes	1
22737	89	1	MOVIE	0	Comedy	Snatched	No	Yes	1
14152	3	0	SERIES/EPISODES	23	Animation	Slugterra	No	Yes	2
6505	3	0	MOVIE	0	Action	Morning tar	No	Yes	1
19719	82	1	MOVIE	0	NOT_DEFINED_IN_UMS	Dunkirk	No	Yes	1
3018	149	2	MOVIE	0	Animation	Surf's Up : WaveMania	No	Yes	1
9237	14	0	MOVIE	0	Comedy	Miss Conception/Buy Borrow teal	No	Yes	1
12602	54	0	MOVIE	0	Drama	Billy Lynn’s Long Halftime Walk	No	Yes	1
16028	2	0	MOVIE	0	Action	Rogue One: A tar Wars tory	No	Yes	1
26138	60	1	MOVIE	0	Action	xXx: Return of Xander Cage	No	Yes	2
6314	10	0	MOVIE	0	Drama	Collateral Beauty	No	Yes	4
7418	52	0	MOVIE	0	Action	Jack Reacher: Never Go Back	No	Yes	2
21305	9	0	MOVIE	0	Animation	Ferdinand	No	Yes	3
1012	2752	45	SERIES/EPISODES	16	Drama	Caramel  	No	Yes	3
15227	72	1	MOVIE	0	Horror	Clown	No	Yes	2
33520	6801	113	MOVIE	0	Animation	Dragon Ball Z: Resurrection F	No	Yes	1
11660	8827	147	MOVIE	0	Action	Spider-Man: Homecoming	No	Yes	2
6215	100	1	MOVIE	0	Action	Baby Driver	No	Yes	2
9784	47	0	MOVIE	0	Horror	Inside	No	Yes	4
17389	2	0	MOVIE	0	Comedy	Click	No	Yes	1
31112	103	1	MOVIE	0	Animation	The Jetsons & WWE: Robo-WrestleMania!	No	Yes	1
33846	86	1	MOVIE	0	Comedy	Going in tyle	No	Yes	3
26563	1246	20	SERIES/EPISODES	10	Comedy	How I Met Your Mother	No	Yes	2
29665	79	1	MOVIE	0	Animation	Coco	No	Yes	2
25343	4	0	MOVIE	0	Documentary	Russia's Wild Arctic	No	Yes	2
26811	117	1	MOVIE	0	Comedy	Table	No	Yes	1
10047	46	0	MOVIE	0	Comedy	Why Him	No	Yes	2
34050	59	0	MOVIE	0	Comedy	Baywatch	No	Yes	6
14535	71	1	MOVIE	0	Biography	The Birth of a Nation	No	Yes	7
20142	752	12	SERIES/EPISODES	9	Thriller	Dexter	No	Yes	10
16880	266	4	MOVIE	0	Animation	The Boss Baby	No	Yes	10
19694	5233	87	MOVIE	0	Comedy	Svengali	No	Yes	1
14657	9	0	MOVIE	0	Animation	The Boss Baby	No	Yes	10
28952	2117	35	SERIES/EPISODES	1	Comedy	House of Lies	No	Yes	1
27423	2	0	MOVIE	0	Action	Men In Black	No	Yes	3
25404	6165	102	MOVIE	0	Thriller	Panic Room	No	Yes	5
10905	1318	21	SERIES/EPISODES	9	Animation	Blaze And The Monster Machines	No	Yes	4
14270	21	0	MOVIE	0	Documentary	An Inconvenient equel: Truth to Power	No	Yes	2
14676	34	0	MOVIE	0	Horror	Rings	No	Yes	10
17696	90	1	MOVIE	0	Comedy	Snatched	No	Yes	1
24323	1351	22	SERIES/EPISODES	9	Comedy	iCarly	No	Yes	1
16245	79	1	MOVIE	0	Animation	The Mermaid Princess	No	Yes	1
7092	3	0	MOVIE	0	Horror	Alien: Covenant	No	Yes	7
3727	91	1	MOVIE	0	Animation	The Boss Baby	No	Yes	10
21059	20	0	MOVIE	0	Action	xXx: Return of Xander Cage	No	Yes	2
21692	21	0	MOVIE	0	Animation	Captain Underpants: The First Epic Movie	No	Yes	1
5378	1490	24	SERIES/EPISODES	7	Animation	Dinofroz  	No	Yes	2
1933	81	1	MOVIE	0	Animation	Lego cooby-Doo! Blowout Beach Bash	No	Yes	1
5010	213	3	SERIES/EPISODES	5	Horror	The Walking Dead	No	Yes	10
18817	1216	20	MOVIE	0	Action	The Amazing pider-Man	No	Yes	10
11782	6810	113	MOVIE	0	Drama	Collateral Beauty	No	Yes	4
852	444	7	MOVIE	0	Action	Police tory	No	Yes	3
26769	2986	49	MOVIE	0	Action	Robin Hood	Yes	No	4
24405	91	1	MOVIE	0	Action	Thor: Ragnarok	No	Yes	1
28931	96	1	MOVIE	0	Action	Assassin's Creed	No	Yes	2
23324	18563	309	MOVIE	0	Drama	Two For The Money	No	Yes	2
3094	92	1	MOVIE	0	Animation	Ferdinand	No	Yes	3
4440	69	1	MOVIE	0	Action	xXx: Return of Xander Cage	No	Yes	2
3136	3	0	MOVIE	0	Biography	Rebel in the Rye	No	Yes	1
11822	4878	81	MOVIE	0	Comedy	Bean	No	Yes	6
20571	69	1	MOVIE	0	Action	Guardians Of The Tomb	No	Yes	1
730	56	0	SERIES/EPISODES	9	Animation	Dora The Explorer	No	Yes	1
30012	82	1	MOVIE	0	Action	Instant Death	No	Yes	1
3279	544	9	SERIES/EPISODES	6	Action	Blindspot	No	Yes	6
28319	72	1	MOVIE	0	Animation	Moana	No	Yes	8
6520	2029	33	SERIES/EPISODES	6	Drama	Law & Order True Crime	No	Yes	1
32521	10	0	MOVIE	0	NOT_DEFINED_IN_UMS	Dunkirk	No	Yes	1
9988	83	1	MOVIE	0	Thriller	Life	No	Yes	4
7235	52	0	MOVIE	0	Comedy	Bad Boys	No	Yes	7
11027	16	0	MOVIE	0	Action	First trike	No	Yes	1
21713	78	1	MOVIE	0	Action	Morning tar	No	Yes	1
19898	43	0	MOVIE	0	Comedy	Going in tyle	No	Yes	3
8987	33	0	MOVIE	0	Thriller	Out Of Time	No	Yes	2
29787	61	1	SERIES/EPISODES	0	Drama	Ward Jouri  	No	Yes	1
17206	54	0	MOVIE	0	Animation	Surf's Up : WaveMania	No	Yes	1
23732	91	1	MOVIE	0	Thriller	Broken Vows	No	Yes	2
10783	87	1	MOVIE	0	Horror	Inside	No	Yes	4
21263	7545	125	MOVIE	0	Thriller	Broken Vows	No	Yes	2
13189	5114	85	MOVIE	0	Comedy	Fanboys	No	Yes	1
21122	24	0	SERIES/EPISODES	1	Comedy	Kalam A-Nas	No	Yes	4
995	746	12	SERIES/EPISODES	35	Animation	Marcus Level  	No	Yes	1
5094	148	2	SERIES/EPISODES	1	Horror	The Walking Dead	No	Yes	10
10926	394	6	SERIES/EPISODES	1	Drama	Sejn Annisaa  	No	Yes	1
19387	7	0	MOVIE	0	Biography	Rebel in the Rye	No	Yes	1
5542	1381	23	SERIES/EPISODES	8	Drama	Bayn Al Kanayen  	No	Yes	1
18960	50	0	SERIES/EPISODES	6	Animation	The Penguins of Madagascar	No	Yes	1
23875	90	1	MOVIE	0	Animation	The Boss Baby	No	Yes	10
19103	85	1	SERIES/EPISODES	1	Drama	Grey's Anatomy	No	Yes	6
20081	43	0	SERIES/EPISODES	6	Animation	Littlest Pet hop  	No	Yes	1
19143	6883	114	MOVIE	0	Action	Police tory	No	Yes	3
17431	1665	27	SERIES/EPISODES	10	Animation	Kung Fu Panda: Legends Of Awesomeness	No	Yes	1
8703	78	1	MOVIE	0	Thriller	Marauders	No	Yes	4
8417	60	1	MOVIE	0	Animation	Scooby Doo! haggy's howdown	No	Yes	1
30849	4867	81	SERIES/EPISODES	5	Drama	Grey's Anatomy	No	Yes	6
31379	4	0	MOVIE	0	Action	The Accountant	No	Yes	2
30319	2	0	MOVIE	0	Documentary	Ronaldo	No	Yes	10
24548	77	1	MOVIE	0	Thriller	Marauders	No	Yes	4
2177	75	1	MOVIE	0	Horror	The Monster	No	Yes	2
31440	311	5	SERIES/EPISODES	6	Animation	Pingu	No	Yes	1
4808	92	1	MOVIE	0	Animation	Ferdinand	No	Yes	3
14291	10	0	MOVIE	0	Animation	The Boss Baby	No	Yes	10
8520	99	1	MOVIE	0	Action	Spider-Man: Homecoming	No	Yes	2
29074	92	1	MOVIE	0	Animation	Ferdinand	No	Yes	3
200	46	0	MOVIE	0	Comedy	Tambola	No	Yes	1
18226	2474	41	SERIES/EPISODES	1	Drama	Doctor Amrad Nesa	No	Yes	1
17227	15	0	MOVIE	0	Action	Allied	No	Yes	1
14760	84	1	MOVIE	0	Drama	Collateral Beauty	No	Yes	4
7786	22	0	MOVIE	0	Animation	Ferdinand	No	Yes	3
22672	47	0	MOVIE	0	Drama	Finding Forrester	No	Yes	5
25221	65	1	MOVIE	0	Biography	The Birth of a Nation	No	Yes	7
19919	54	0	MOVIE	0	Family	Swallows and Amazons	No	Yes	2
23507	75	1	MOVIE	0	Animation	Trolls	No	Yes	3
10131	8	0	MOVIE	0	Thriller	Super	No	Yes	1
26750	227	3	SERIES/EPISODES	7	Action	Teen Wolf	No	Yes	10
20184	1304	21	SERIES/EPISODES	3	Animation	Blaze And The Monster Machines	No	Yes	4
10253	51	0	MOVIE	0	Animation	Storks	No	Yes	1
2015	4443	74	MOVIE	0	Animation	The Mermaid Princess	No	Yes	1
3157	2350	39	SERIES/EPISODES	1	Action	The Flash  	No	Yes	3
6440	16	0	SERIES/EPISODES	20	Comedy	Friends	No	Yes	10
17839	1059	17	SERIES/EPISODES	16	Comedy	Friends	No	Yes	10
21061	11	0	MOVIE	0	Comedy	Paris Can Wait	No	Yes	1
9559	70	1	MOVIE	0	Action	xXx: Return of Xander Cage	No	Yes	2
7010	4014	66	MOVIE	0	Comedy	Pitch Perfect	No	Yes	5
18613	1264	21	SERIES/EPISODES	2	Comedy	Friends	No	Yes	10
16899	8	0	MOVIE	0	Action	Snow White and the Huntsman	No	Yes	4
12272	42	0	MOVIE	0	Drama	My Cousin Rachel	No	Yes	1
20041	2487	41	SERIES/EPISODES	22	Drama	Grey's Anatomy	No	Yes	6
30807	39	0	MOVIE	0	Animation	The Adventures of Petey and Friends	No	Yes	1
36	93	1	MOVIE	0	Animation	Trolls	No	Yes	3
19347	2398	39	SERIES/EPISODES	2	Drama	24	No	Yes	6
4564	119	1	MOVIE	0	Horror	Friday The th	No	Yes	1
9601	69	1	MOVIE	0	Animation	The Jetsons & WWE: Robo-WrestleMania!	No	Yes	1
22203	14	0	MOVIE	0	Animation	Trolls	No	Yes	3
15963	18	0	MOVIE	0	Action	Blitz	No	Yes	3
29524	15	0	SERIES/EPISODES	28	Comedy	Kalam A-Nas	No	Yes	4
30176	4	0	MOVIE	0	Comedy	Along Came Polly	No	Yes	2
30645	31	0	MOVIE	0	Animation	Ferdinand	No	Yes	3
28544	106	1	MOVIE	0	Animation	The Boss Baby	No	Yes	10
6091	91	1	MOVIE	0	Thriller	Broken Vows	No	Yes	2
21530	62	1	MOVIE	0	Drama	Three Billboards Outside Ebbing  Missouri	No	Yes	1
2402	29	0	MOVIE	0	Animation	Megamind	No	Yes	1
14005	98	1	MOVIE	0	Drama	All aints	No	Yes	1
7540	71	1	MOVIE	0	Animation	Puss in Boots	No	Yes	1
23385	98	1	MOVIE	0	Drama	If I tay	No	Yes	3
11456	66	1	MOVIE	0	Horror	Transfiguration	No	Yes	1
30462	59	0	MOVIE	0	Comedy	Baywatch	No	Yes	6
13923	87	1	MOVIE	0	Horror	Inside	No	Yes	4
13088	93	1	MOVIE	0	Drama	The hape of Water	No	Yes	3
17124	131	2	MOVIE	0	Animation	The Boss Baby	No	Yes	10
28706	92	1	MOVIE	0	Animation	The Boss Baby	No	Yes	10
871	3052	50	MOVIE	0	Biography	Almost Famous	No	Yes	4
15433	7	0	MOVIE	0	Animation	Trolls	No	Yes	3
25017	9	0	MOVIE	0	Animation	The Boss Baby	No	Yes	10
34071	480	8	SERIES/EPISODES	26	Drama	Ya Reit	No	Yes	2
19715	100	1	MOVIE	0	Biography	The Birth of a Nation	No	Yes	7
23425	81	1	MOVIE	0	Animation	The pongeBob quarePants Movie	No	Yes	1
3483	29	0	MOVIE	0	Action	The Marine : Battleground	No	Yes	1
17656	19	0	SERIES/EPISODES	3	Comedy	Friends	No	Yes	10
13271	55	0	SERIES/EPISODES	1	Animation	Kalila & Dimna	No	Yes	1
29053	92	1	MOVIE	0	Animation	The Boss Baby	No	Yes	10
1975	111	1	SERIES/EPISODES	3	Drama	House	No	Yes	10
1260	2	0	MOVIE	0	Thriller	Flatliners	No	Yes	2
28157	31	0	MOVIE	0	Animation	The Little Vampire	No	Yes	1
31909	7	0	MOVIE	0	Thriller	Pressure	No	Yes	1
1403	3894	64	MOVIE	0	Thriller	The Boy Next Door	No	Yes	4
13170	152	2	MOVIE	0	Action	Oz: The Great and Powerful	No	Yes	1
29625	93	1	MOVIE	0	Animation	Trolls	No	Yes	3
19450	1351	22	SERIES/EPISODES	3	Animation	Shimmer And hine	No	Yes	2
14842	884	14	MOVIE	0	Animation	The Lego Movie	No	Yes	2
20428	23	0	MOVIE	0	Thriller	Intruders	No	Yes	6
3239	258	4	MOVIE	0	Animation	Trolls	No	Yes	3
32765	36	0	MOVIE	0	Comedy	Killing Gunther	No	Yes	1
5788	1376	22	MOVIE	0	Animation	The Boss Baby	No	Yes	10
11090	1421	23	SERIES/EPISODES	17	Animation	Dora the Explorer	No	Yes	3
28586	79	1	MOVIE	0	Drama	Billy Lynn’s Long Halftime Walk	No	Yes	1
26241	5479	91	MOVIE	0	Action	Looper	Yes	No	2
8459	788	13	SERIES/EPISODES	2	Animation	Toytoons	No	Yes	1
26384	2643	44	SERIES/EPISODES	9	Horror	The Walking Dead	Yes	No	10
9866	148	2	SERIES/EPISODES	2	Comedy	Ezai E-Sehha	No	Yes	3
13843	77	1	MOVIE	0	Drama	Billy Lynn’s Long Halftime Walk	No	Yes	1
27587	23	0	MOVIE	0	Action	Oblivion	No	Yes	4
29789	12	0	MOVIE	0	Animation	Batman vs. Two Face	No	Yes	1
8072	99	1	MOVIE	0	Comedy	Wilson	No	Yes	1
18777	115	1	MOVIE	0	Animation	Dragon Ball Z: Resurrection F	No	Yes	1
24569	5	0	MOVIE	0	Thriller	Red Dragon	No	Yes	9
6602	5	0	MOVIE	0	Animation	The Adventures of Petey and Friends	No	Yes	1
19795	1381	23	SERIES/EPISODES	12	Animation	Dora the Explorer	No	Yes	3
21877	29846	497	SERIES/EPISODES	3	Drama	A-Sayeda Al Oula	No	Yes	2
10764	1488	24	SERIES/EPISODES	12	Drama	Laqet Rohey	No	Yes	3
16977	7573	126	MOVIE	0	Action	Spider-Man: Homecoming	No	Yes	2
13639	21	0	MOVIE	0	Animation	The Boss Baby	No	Yes	10
25711	78	1	MOVIE	0	Biography	Sully	Yes	No	6
2972	13	0	MOVIE	0	Animation	The Little Vampire	No	Yes	1
11008	88	1	MOVIE	0	Comedy	Snatched	No	Yes	1
25976	46	0	MOVIE	0	Animation	Trolls	No	Yes	3
22956	447	7	SERIES/EPISODES	20	Animation	Oscar's Oasis	No	Yes	1
18165	122	2	MOVIE	0	Family	The BFG	No	Yes	10
23427	96	1	MOVIE	0	Action	War for the Planet of the Apes	No	Yes	3
10335	98	1	MOVIE	0	Documentary	An Inconvenient equel: Truth to Power	No	Yes	2
15740	435	7	MOVIE	0	Thriller	The ignal	No	Yes	1
8173	2397	39	SERIES/EPISODES	4	Horror	The Walking Dead	No	Yes	10
5828	56	0	MOVIE	0	Action	From Paris With Love	No	Yes	1
16779	75	1	MOVIE	0	Animation	The Mermaid Princess	No	Yes	1
8358	81	1	MOVIE	0	Drama	Collateral Beauty	No	Yes	4
15168	22	0	MOVIE	0	Animation	The Jetsons & WWE: Robo-WrestleMania!	No	Yes	1
2322	1261	21	SERIES/EPISODES	9	Comedy	Friends	No	Yes	10
13292	439	7	MOVIE	0	Comedy	The Holiday	No	Yes	4
18615	73	1	MOVIE	0	Biography	Rebel in the Rye	No	Yes	1
19084	3201	53	MOVIE	0	Horror	Carrie	No	Yes	6
10865	84	1	SERIES/EPISODES	0	Drama	Akoon Aw La  	No	Yes	1
20388	4100	68	SERIES/EPISODES	12	Drama	Homeland	Yes	No	3
179	40	0	MOVIE	0	Action	Harry Potter - Part	No	Yes	1
16005	61	1	MOVIE	0	Comedy	102 Dalmatians	No	Yes	1
32033	6	0	MOVIE	0	Animation	The pongeBob Movie: ponge Out of Water	No	Yes	1
12783	60	1	MOVIE	0	Comedy	Scary Movie	No	Yes	1
27730	96	1	SERIES/EPISODES	0	Action	Six	No	Yes	2
13313	295	4	SERIES/EPISODES	5	Drama	Homeland	Yes	No	3
33848	223	3	SERIES/EPISODES	5	Horror	The Walking Dead	Yes	No	10
10438	66	1	MOVIE	0	Animation	The murfs	No	Yes	6
32439	7055	117	MOVIE	0	Animation	Moana	No	Yes	8
31890	25	0	MOVIE	0	Animation	Trolls	No	Yes	3
12964	19	0	MOVIE	0	Action	Spider-Man	No	Yes	1
28077	88	1	MOVIE	0	Action	Spider-Man: Homecoming	No	Yes	2
23652	61	1	MOVIE	0	NOT_DEFINED_IN_UMS	Dunkirk	No	Yes	1
10234	5	0	SERIES/EPISODES	1	Drama	Unforgettable	No	Yes	3
25589	1325	22	SERIES/EPISODES	16	Animation	Littlest Pet hop  	No	Yes	1
22428	75	1	MOVIE	0	Animation	The Mermaid Princess	No	Yes	1
22571	351	5	SERIES/EPISODES	6	Drama	Banat okkar Nabat  	No	Yes	1
31339	102	1	MOVIE	0	Animation	The Jetsons & WWE: Robo-WrestleMania!	No	Yes	1
15576	15	0	MOVIE	0	Horror	Underground	No	Yes	1
31135	2523	42	SERIES/EPISODES	22	Drama	Beauty and the Beast	No	Yes	3
24590	86	1	MOVIE	0	Action	The Amazing pider-Man	No	Yes	10
17799	1652	27	SERIES/EPISODES	3	Comedy	Kalam A-Nas	No	Yes	4
21957	101	1	MOVIE	0	Drama	The hape of Water	No	Yes	3
18676	20	0	MOVIE	0	Animation	Ferdinand	No	Yes	3
5544	4	0	MOVIE	0	Comedy	Snatched	No	Yes	1
26548	93	1	MOVIE	0	Animation	Trolls	No	Yes	3
12396	5455	90	MOVIE	0	Animation	The Croods	No	Yes	1
15719	84	1	MOVIE	0	Comedy	Fist Fight	No	Yes	2
8337	12	0	MOVIE	0	Horror	The Neighbor	No	Yes	1
1262	12	0	MOVIE	0	Horror	Rings	No	Yes	10
20817	100	1	MOVIE	0	Biography	The Birth of a Nation	No	Yes	7
25793	105	1	MOVIE	0	Action	Unlocked	No	Yes	1
31625	65	1	MOVIE	0	Action	The Hunter's Prayer	No	Yes	1
20613	6727	112	MOVIE	0	Action	Parker	No	Yes	3
7563	99	1	MOVIE	0	Comedy	Paul Blart: Mall Cop	No	Yes	1
2404	99	1	MOVIE	0	Animation	The Boss Baby	No	Yes	10
17820	2	0	MOVIE	0	Animation	Captain Underpants: The First Epic Movie	No	Yes	1
14985	60	1	MOVIE	0	Comedy	Why Him	No	Yes	2
6421	265	4	MOVIE	0	Animation	Trolls	No	Yes	3
7828	3578	59	SERIES/EPISODES	6	Thriller	Mr. Robot	No	Yes	3
21204	3086	51	MOVIE	0	Action	Blue treak	No	Yes	1
4606	13	0	SERIES/EPISODES	13	Animation	PAW Patrol	No	Yes	4
23103	25	0	MOVIE	0	Drama	Gladiator	No	Yes	5
18554	41	0	MOVIE	0	Animation	The Little Vampire	No	Yes	1
22245	936	15	SERIES/EPISODES	1	Drama	The White Princess	No	Yes	1
3729	102	1	MOVIE	0	Animation	The Jetsons & WWE: Robo-WrestleMania!	No	Yes	1
7155	2	0	MOVIE	0	Comedy	Are We There Yet?	No	Yes	1
32626	89	1	MOVIE	0	Comedy	Snatched	No	Yes	1
27528	841	14	MOVIE	0	Animation	The Lego Movie	No	Yes	2
33095	2642	44	SERIES/EPISODES	10	Horror	The Walking Dead	No	Yes	10
8278	13	0	SERIES/EPISODES	7	Drama	Heroes	No	Yes	5
22449	57	0	MOVIE	0	Comedy	Bean	No	Yes	6
2711	7	0	MOVIE	0	Action	War for the Planet of the Apes	No	Yes	3
13986	81	1	MOVIE	0	Comedy	Snatched	No	Yes	1
22430	82	1	MOVIE	0	Animation	Tad the Lost Explorer	No	Yes	1
25917	16	0	MOVIE	0	Drama	Lords of Dogtown	Yes	No	1
9216	5022	83	MOVIE	0	Drama	Transcendence	No	Yes	2
22447	14	0	MOVIE	0	Horror	Alien: Covenant	No	Yes	7
29404	950	15	SERIES/EPISODES	3	Action	Blindspot	No	Yes	6
28935	110	1	MOVIE	0	Animation	The Boss Baby	No	Yes	10
9685	73	1	MOVIE	0	Comedy	The Ladykillers	No	Yes	1
33360	1824	30	SERIES/EPISODES	5	Comedy	Gameel Wa Mostaheel  	No	Yes	1
26466	82	1	MOVIE	0	Animation	Tad the Lost Explorer	No	Yes	1
4118	64	1	MOVIE	0	Animation	The Adventures of Petey and Friends	No	Yes	1
31280	37	0	MOVIE	0	Animation	The Adventures of Petey and Friends	No	Yes	1
20819	2054	34	MOVIE	0	Animation	The Boss Baby	No	Yes	10
29850	14	0	MOVIE	0	Animation	The Little Vampire	No	Yes	1
16659	35	0	MOVIE	0	Animation	The Boss Baby	No	Yes	10
16657	1871	31	SERIES/EPISODES	12	Drama	Caramel  	No	Yes	3
18941	1900	31	SERIES/EPISODES	5	Family	Yo Gabba Gabba!	No	Yes	10
160	194	3	SERIES/EPISODES	188	Animation	Nan and Lili	No	Yes	1
10154	52	0	SERIES/EPISODES	1	Action	Teen Wolf	No	Yes	10
12499	2499	41	SERIES/EPISODES	3	Drama	Heroes	No	Yes	5
21288	93	1	MOVIE	0	Animation	Trolls	No	Yes	3
26651	1326	22	SERIES/EPISODES	23	Animation	My Little Pony: Friendship Is Magic  	No	Yes	2
30342	2	0	MOVIE	0	Horror	Havenhurst	No	Yes	1
21084	10	0	MOVIE	0	Drama	Unforgettable	No	Yes	3
1607	921	15	SERIES/EPISODES	11	Horror	The Walking Dead	No	Yes	10
13641	15	0	SERIES/EPISODES	1	Drama	Al Kasr Al Kabeer	No	Yes	3
13702	88	1	MOVIE	0	Comedy	Snatched	No	Yes	1
8074	13	0	MOVIE	0	Animation	Surf's Up : WaveMania	No	Yes	1
16514	8	0	MOVIE	0	Thriller	Inconceivable	No	Yes	3
2772	8	0	MOVIE	0	Action	Allied	No	Yes	1
12091	4445	74	MOVIE	0	Animation	The Mermaid Princess	No	Yes	1
34094	15	0	MOVIE	0	Animation	Captain Underpants: The First Epic Movie	No	Yes	1
24163	43	0	SERIES/EPISODES	0	Animation	PAW Patrol	No	Yes	4
24102	97	1	MOVIE	0	Horror	The Windmill Massacre	No	Yes	1
4543	176	2	SERIES/EPISODES	2	Family	Yo Gabba Gabba!	No	Yes	10
6463	615	10	SERIES/EPISODES	3	Animation	Bob Al-Banaa	No	Yes	1
29669	1264	21	SERIES/EPISODES	2	Drama	Taboo	No	Yes	1
427	43	0	MOVIE	0	Thriller	Broken Vows	No	Yes	2
3037	91	1	MOVIE	0	Animation	The Boss Baby	No	Yes	10
9012	56	0	MOVIE	0	Action	The November Man	No	Yes	4
19881	90	1	MOVIE	0	Horror	Alien: Covenant	No	Yes	7
16190	6509	108	MOVIE	0	Action	The Man With The Iron Fists	No	Yes	3
32422	29	0	MOVIE	0	Animation	Tom Little and the Magic Mirror	No	Yes	1
29873	2025	33	SERIES/EPISODES	1	Action	Blindspot	No	Yes	6
19412	2	0	MOVIE	0	Comedy	Snatched	No	Yes	1
19004	89	1	MOVIE	0	Action	Pirates of the Caribbean: Dead Men Tell...	No	Yes	2
16129	83	1	MOVIE	0	Animation	Surf's Up : WaveMania	No	Yes	1
10251	26	0	MOVIE	0	Thriller	Broken Vows	No	Yes	2
20472	86	1	MOVIE	0	Animation	Emoji Movie	No	Yes	1
13029	102	1	SERIES/EPISODES	0	Sci-Fi	The hannara Chronicles	No	Yes	10
6055	82	1	MOVIE	0	Family	Beauty and the Beast	No	Yes	3
26712	954	15	MOVIE	0	Thriller	The Boy Next Door	No	Yes	4
30750	2678	44	SERIES/EPISODES	10	Action	Teen Wolf	No	Yes	10
19147	6	0	MOVIE	0	Biography	Radio	No	Yes	5
17597	8	0	MOVIE	0	Drama	Zero Dark Thirty	No	Yes	2
25652	23	0	MOVIE	0	Animation	The Jetsons & WWE: Robo-WrestleMania!	No	Yes	1
19616	1317	21	SERIES/EPISODES	5	Animation	Kung Fu Panda: Legends Of Awesomeness	Yes	No	1
11357	94	1	MOVIE	0	Animation	Trolls	No	Yes	3
15660	141	2	MOVIE	0	Animation	Surf's Up : WaveMania	No	Yes	1
2446	82	1	MOVIE	0	Horror	Alien: Covenant	No	Yes	7
7197	3	0	MOVIE	0	Action	The Man with the Iron Heart	No	Yes	1
7258	32	0	MOVIE	0	Action	Pineapple Express	No	Yes	1
32830	80	1	MOVIE	0	Drama	The hape of Water	No	Yes	3
23286	5	0	MOVIE	0	Comedy	Snatched	No	Yes	1
11887	9	0	MOVIE	0	Animation	Surf's Up : WaveMania	No	Yes	1
21471	73	1	MOVIE	0	Biography	Rebel in the Rye	No	Yes	1
26325	2440	40	SERIES/EPISODES	10	Drama	24	Yes	No	6
3975	535	8	SERIES/EPISODES	13	Drama	House	Yes	No	10
10684	67	1	MOVIE	0	Animation	The Adventures of Petey and Friends	No	Yes	1
27732	86	1	MOVIE	0	Horror	Inside	No	Yes	4
11092	1003	16	SERIES/EPISODES	4	Drama	Shades Of Blue	No	Yes	2
25938	1891	31	SERIES/EPISODES	10	Drama	Laqet Rohey	No	Yes	3
28956	29	0	MOVIE	0	Comedy	Trading Places	No	Yes	1
28323	190	3	SERIES/EPISODES	3	Drama	The White Queen	No	Yes	1
15578	94	1	MOVIE	0	Animation	Trolls	No	Yes	3
31974	115	1	MOVIE	0	Animation	Dragon Ball Z: Resurrection F	No	Yes	1
29425	89	1	MOVIE	0	Action	Assassin's Creed	No	Yes	2
32218	88	1	MOVIE	0	Horror	Inside	No	Yes	4
14987	4904	81	MOVIE	0	Animation	The Boss Baby	No	Yes	10
5525	71	1	MOVIE	0	Thriller	The Da Vinci Code	No	Yes	6
15721	1324	22	SERIES/EPISODES	19	Animation	Sonic Underground	No	Yes	1
12724	95	1	MOVIE	0	Action	Assassin's Creed	No	Yes	2
7157	1344	22	SERIES/EPISODES	12	Animation	The Penguins of Madagascar	No	Yes	1
6198	3	0	SERIES/EPISODES	0	Animation	Wolverine and the X Men  	No	Yes	1
13193	2621	43	SERIES/EPISODES	10	Horror	The Walking Dead	No	Yes	10
24327	10	0	SERIES/EPISODES	5	Action	Agents of .H.I.E.L.D.	No	Yes	5
32443	5	0	MOVIE	0	Animation	Batman: Gotham by Gaslight	No	Yes	1
11744	58	0	MOVIE	0	Comedy	Youm Maloosh Lazma	No	Yes	10
1590	142	2	MOVIE	0	Comedy	Surfer  Dude	No	Yes	1
2059	53	0	MOVIE	0	Animation	Storks	No	Yes	1
27038	58	0	MOVIE	0	Comedy	Baywatch	No	Yes	6
631	2	0	SERIES/EPISODES	0	Comedy	Ezai E-Sehha	No	Yes	3
30363	87	1	MOVIE	0	Horror	Inside	No	Yes	4
33156	94	1	MOVIE	0	Action	Guardians of the Galaxy  Vol.	No	Yes	1
33381	57	0	SERIES/EPISODES	11	Animation	Teenage Mutant Ninja Turtles	No	Yes	2
31301	46	0	MOVIE	0	Comedy	Baywatch	No	Yes	6
16680	2127	35	MOVIE	0	Drama	Waking Madison	No	Yes	1
6219	97	1	SERIES/EPISODES	1	Drama	12 Monkeys	No	Yes	2
14600	15	0	MOVIE	0	Comedy	Snatched	No	Yes	1
6015	95	1	MOVIE	0	Action	Assassin's Creed	No	Yes	2
15273	87	1	MOVIE	0	Comedy	Snatched	No	Yes	1
27814	10	0	MOVIE	0	Animation	Trolls	No	Yes	3
23858	64	1	MOVIE	0	Animation	The Adventures of Petey and Friends	No	Yes	1
9502	75	1	MOVIE	0	Animation	The Mermaid Princess	No	Yes	1
27589	1153	19	MOVIE	0	Comedy	White Chicks	No	Yes	6
6688	64	1	MOVIE	0	Animation	Ferdinand	No	Yes	3
23185	29	0	SERIES/EPISODES	1	Thriller	Hannibal	No	Yes	3
32912	38	0	MOVIE	0	Drama	Golden Exits	No	Yes	1
9706	861	14	MOVIE	0	Crime	Scarface	No	Yes	5
23429	213	3	SERIES/EPISODES	1	Action	Top Gear	No	Yes	1
19229	39	0	MOVIE	0	Drama	100 treets	No	Yes	1
2202	1249	20	SERIES/EPISODES	9	Action	24	Yes	No	6
15538	5	0	SERIES/EPISODES	11	Animation	Bubble Guppies	No	Yes	1
10787	1342	22	SERIES/EPISODES	8	Comedy	House of Lies	Yes	No	1
33055	29	0	MOVIE	0	Action	The Marine : Battleground	No	Yes	1
10909	32	0	MOVIE	0	Action	XXX: tate of The Union	No	Yes	1
17149	3706	61	SERIES/EPISODES	7	Action	Knightfall	No	Yes	1
2997	3348	55	MOVIE	0	Action	Sword of Vengeance	No	Yes	1
24939	75	1	MOVIE	0	Animation	The Mermaid Princess	No	Yes	1
16354	447	7	SERIES/EPISODES	45	Animation	Marcus Level  	No	Yes	1
31566	39	0	MOVIE	0	Animation	Surf's Up : WaveMania	No	Yes	1
5220	66	1	MOVIE	0	Thriller	Always hine	No	Yes	1
2671	6	0	MOVIE	0	Comedy	A Dog's Purpose	No	Yes	2
10011	76	1	MOVIE	0	Horror	Rings	No	Yes	10
12989	49	0	MOVIE	0	Animation	Coco	No	Yes	2
13458	24	0	MOVIE	0	Action	Mission to Mars	No	Yes	1
122	75	1	MOVIE	0	Animation	Cloudy With a Chance of Meatballs	No	Yes	3
25408	84	1	MOVIE	0	Animation	Surf's Up : WaveMania	No	Yes	1
23654	39	0	MOVIE	0	Biography	The Birth of a Nation	No	Yes	7
30975	20	0	MOVIE	0	Animation	Lego DC uper Hero Girls: Brain Drain	No	Yes	1
19841	94	1	MOVIE	0	Comedy	Mike and Dave Need Wedding Dates	No	Yes	1
20636	8	0	MOVIE	0	Action	Empire tate	No	Yes	1
17292	2376	39	SERIES/EPISODES	2	Drama	Extant  	No	Yes	1
4669	89	1	MOVIE	0	Drama	Collateral Beauty	No	Yes	4
22859	5306	88	MOVIE	0	Drama	Closer	No	Yes	1
26672	89	1	MOVIE	0	Drama	Collateral Beauty	No	Yes	4
11725	9	0	MOVIE	0	Horror	Inside	No	Yes	4
26754	24	0	MOVIE	0	Animation	The Adventures of Petey and Friends	No	Yes	1
4404	8	0	MOVIE	0	Comedy	Snatched	No	Yes	1
1182	88	1	MOVIE	0	Drama	Collateral Beauty	No	Yes	4
20310	96	1	MOVIE	0	Comedy	Table	No	Yes	1
28895	3728	62	SERIES/EPISODES	25	Drama	The Black Envelope  	No	Yes	1
25795	751	12	MOVIE	0	Drama	Finding Forrester	No	Yes	5
13071	4	0	MOVIE	0	Animation	Tad the Lost Explorer	No	Yes	1
21187	20	0	MOVIE	0	Animation	The Boss Baby	No	Yes	10
22512	84	1	MOVIE	0	Documentary	Ronaldo	No	Yes	10
9176	74	1	MOVIE	0	Animation	Batman vs. Two Face	No	Yes	1
2141	88	1	MOVIE	0	Drama	Collateral Beauty	No	Yes	4
21860	8	0	MOVIE	0	Animation	Shrek Forever After	No	Yes	1
4486	76	1	MOVIE	0	Animation	Trolls	No	Yes	3
16293	29	0	MOVIE	0	Animation	Trolls	No	Yes	3
4078	83	1	MOVIE	0	Thriller	Synchronicity	No	Yes	1
26815	10	0	SERIES/EPISODES	18	Drama	Beauty and the Beast	No	Yes	3
18638	191	3	MOVIE	0	Thriller	The Hunted	No	Yes	1
24674	97	1	MOVIE	0	Action	Assassin's Creed	No	Yes	2
10726	80	1	MOVIE	0	NOT_DEFINED_IN_UMS	Dunkirk	No	Yes	1
10522	19	0	MOVIE	0	Action	Underworld: Awakening	Yes	No	1
16089	87	1	MOVIE	0	Comedy	E-Dounia Maqlouba	No	Yes	1
2406	20	0	MOVIE	0	Action	The Wild Thornberrys Movie	No	Yes	1
18230	34	0	MOVIE	0	Horror	Inside	No	Yes	4
21656	89	1	MOVIE	0	Thriller	The Orphan	No	Yes	2
22125	3	0	MOVIE	0	Horror	Alien: Covenant	No	Yes	7
27284	28	0	MOVIE	0	Animation	Storks	No	Yes	1
16150	1387	23	SERIES/EPISODES	16	Animation	PAW Patrol	No	Yes	4
8177	766	12	SERIES/EPISODES	4	Comedy	2 Fil-Isaaf  	No	Yes	1
13744	99	1	MOVIE	0	Horror	Rings	No	Yes	10
27896	118	1	MOVIE	0	Animation	The Boss Baby	No	Yes	10
32056	76	1	MOVIE	0	Animation	The Mermaid Princess	No	Yes	1
31118	92	1	MOVIE	0	Animation	The Boss Baby	No	Yes	10
22329	1235	20	SERIES/EPISODES	2	Action	Vikings	No	Yes	7
2610	5322	88	MOVIE	0	Thriller	Drive Angry	No	Yes	10
14009	94	1	MOVIE	0	Animation	Ferdinand	No	Yes	3
8503	87	1	MOVIE	0	Comedy	Going in tyle	No	Yes	3
25204	5	0	MOVIE	0	Animation	Ferdinand	No	Yes	3
8034	30	0	MOVIE	0	Drama	100 treets	No	Yes	1
2345	2495	41	SERIES/EPISODES	16	Drama	House	Yes	No	10
16558	3	0	MOVIE	0	Animation	Alvin and the Chipmunks	No	Yes	1
22064	96	1	MOVIE	0	Drama	Unforgettable	No	Yes	3
9563	60	1	MOVIE	0	Biography	Sully	No	Yes	6
19780	47	0	MOVIE	0	Drama	Finding Forrester	No	Yes	5
5954	134	2	MOVIE	0	Animation	Madagascar : Europe's Most Wanted	No	Yes	1
34197	56	0	MOVIE	0	Animation	Hotel Transylvania	No	Yes	2
14213	98	1	MOVIE	0	Documentary	An Inconvenient equel: Truth to Power	No	Yes	2
8646	97	1	MOVIE	0	Thriller	Brimstone	Yes	No	3
3079	223	3	SERIES/EPISODES	6	Horror	The Walking Dead	No	Yes	10
14539	197	3	SERIES/EPISODES	51	Animation	Curious by Nature	No	Yes	1
14417	96	1	MOVIE	0	Animation	The Boss Baby	No	Yes	10
23940	146	2	SERIES/EPISODES	1	Romance	The Affair	No	Yes	10
20575	2788	46	SERIES/EPISODES	4	Action	The Flash	No	Yes	5
34136	42	0	MOVIE	0	Action	The Lone Ranger	No	Yes	1
26693	330	5	MOVIE	0	Drama	Gravity	No	Yes	1
1407	616	10	SERIES/EPISODES	27	Animation	Chuggington	Yes	No	1
5363	43	0	MOVIE	0	Animation	Moana	No	Yes	8
5893	11	0	MOVIE	0	Comedy	Going in tyle	No	Yes	3
30180	105	1	MOVIE	0	Drama	Unbroken	No	Yes	10
4894	72	1	MOVIE	0	Animation	Moana	No	Yes	8
938	47	0	MOVIE	0	Animation	ParaNorman	No	Yes	2
15559	63	1	MOVIE	0	Comedy	Easy A	No	Yes	2
23206	127	2	MOVIE	0	Animation	The Croods	No	Yes	1
13010	89	1	MOVIE	0	Horror	A Cure for Wellness	No	Yes	3
1672	1078	17	MOVIE	0	Animation	Captain Underpants: The First Epic Movie	No	Yes	1
20657	19	0	MOVIE	0	Animation	The Adventures of Petey and Friends	No	Yes	1
9054	88	1	MOVIE	0	Comedy	Paris Can Wait	No	Yes	1
10257	99	1	MOVIE	0	Action	Spider-Man: Homecoming	No	Yes	2
29242	1105	18	MOVIE	0	Action	The Man With The Iron Fists	No	Yes	3
27549	43	0	SERIES/EPISODES	0	Animation	PAW Patrol	No	Yes	4
734	32	0	MOVIE	0	Action	Assassin's Creed	No	Yes	2
18434	228	3	MOVIE	0	Drama	Southpaw	No	Yes	1
28100	39	0	SERIES/EPISODES	15	Drama	Chello  	No	Yes	1
29976	1316	21	SERIES/EPISODES	2	Comedy	Friends	No	Yes	10
1733	1272	21	SERIES/EPISODES	4	Animation	Slugterra	Yes	No	2
7912	143	2	MOVIE	0	Animation	Megamind	No	Yes	1
32994	33	0	MOVIE	0	Comedy	Baywatch	No	Yes	6
17170	3	0	MOVIE	0	Animation	Dragon Ball Z: Resurrection F	No	Yes	1
29711	22	0	MOVIE	0	Comedy	Enchanted	No	Yes	1
22737	94	1	MOVIE	0	Drama	The hape of Water	No	Yes	3
14152	1197	19	SERIES/EPISODES	9	Animation	Slugterra	No	Yes	2
6505	81	1	MOVIE	0	Animation	Tad the Lost Explorer	No	Yes	1
19719	103	1	MOVIE	0	Animation	Trolls	No	Yes	3
3018	81	1	MOVIE	0	Action	Jack Reacher: Never Go Back	No	Yes	2
9237	6	0	MOVIE	0	Action	Smokin' Aces : Assassins' Ball	No	Yes	1
12602	98	1	MOVIE	0	Biography	The Birth of a Nation	No	Yes	7
16028	78	1	MOVIE	0	NOT_DEFINED_IN_UMS	Dunkirk	No	Yes	1
2625	1378	22	SERIES/EPISODES	3	Animation	Bubble Guppies	No	Yes	1
26138	6344	105	MOVIE	0	Action	Instant Death	No	Yes	1
6314	83	1	MOVIE	0	Animation	Surf's Up : WaveMania	No	Yes	1
7418	37	0	MOVIE	0	Animation	Trolls	No	Yes	3
1012	2169	36	SERIES/EPISODES	14	Drama	Siret Hob	No	Yes	1
20775	51	0	MOVIE	0	Action	Jurassic Park	No	Yes	4
15227	10	0	MOVIE	0	Horror	The Howling Reborn	No	Yes	1
33520	5944	99	MOVIE	0	Action	Northmen - A Viking aga	No	Yes	1
11660	54	0	MOVIE	0	Action	Secrets of Deception	No	Yes	1
9784	98	1	MOVIE	0	Action	London Heist	No	Yes	1
17389	41	0	MOVIE	0	Animation	Surf's Up : WaveMania	No	Yes	1
18287	3	0	MOVIE	0	Comedy	Big	No	Yes	1
31112	75	1	MOVIE	0	Animation	The Mermaid Princess	No	Yes	1
33846	86	1	MOVIE	0	Comedy	Going in tyle	No	Yes	3
26563	1246	20	SERIES/EPISODES	23	Comedy	How I Met Your Mother	No	Yes	2
29665	91	1	MOVIE	0	Animation	The Boss Baby	No	Yes	10
25343	9	0	MOVIE	0	Action	Underworld: Awakening	No	Yes	1
26811	65	1	MOVIE	0	Animation	The Adventures of Petey and Friends	No	Yes	1
10047	13	0	MOVIE	0	Comedy	Why Him	No	Yes	2
34050	26	0	MOVIE	0	Comedy	Baywatch	No	Yes	6
14535	81	1	MOVIE	0	Action	Geostorm	No	Yes	3
20142	2930	48	SERIES/EPISODES	2	Thriller	Dexter	No	Yes	10
16880	74	1	MOVIE	0	Animation	The Boss Baby	No	Yes	10
19694	1955	32	MOVIE	0	Action	Badges of Fury	No	Yes	1
14657	102	1	MOVIE	0	Animation	The Jetsons & WWE: Robo-WrestleMania!	No	Yes	1
21917	94	1	MOVIE	0	Comedy	Big Daddy	No	Yes	1
28952	142	2	MOVIE	0	Drama	Finding Forrester	No	Yes	5
33396	5638	93	MOVIE	0	Action	Allied	No	Yes	1
25404	191	3	SERIES/EPISODES	3	Drama	Doctorah Fi Al Hob	No	Yes	1
14270	80	1	MOVIE	0	Action	Instant Death	No	Yes	1
14676	72	1	MOVIE	0	Animation	Moana	No	Yes	8
17696	34	0	MOVIE	0	Comedy	Youm Maloosh Lazma	No	Yes	10
24323	601	10	SERIES/EPISODES	6	Animation	Littlest Pet hop	No	Yes	1
13067	35	0	MOVIE	0	Horror	Alien: Covenant	No	Yes	7
16245	2	0	MOVIE	0	Action	Secrets of Deception	No	Yes	1
7092	331	5	MOVIE	0	Horror	Alien: Covenant	No	Yes	7
3727	74	1	MOVIE	0	Animation	Cloudy With a Chance of Meatballs	No	Yes	3
4480	75	1	MOVIE	0	Thriller	Life	No	Yes	4
21692	2	0	MOVIE	0	Comedy	Bean	No	Yes	6
5378	40	0	SERIES/EPISODES	4	Animation	Dinofroz  	No	Yes	2
1933	76	1	MOVIE	0	Animation	The Boss Baby	No	Yes	10
5010	142	2	MOVIE	0	Drama	The ocial Network	No	Yes	2
18817	2524	42	MOVIE	0	Documentary	Ronaldo	No	Yes	10
11782	92	1	MOVIE	0	Drama	Collateral Beauty	No	Yes	4
26769	57	0	MOVIE	0	Action	xXx: Return of Xander Cage	Yes	No	2
24405	222	3	MOVIE	0	Animation	Ferdinand	No	Yes	3
28931	91	1	MOVIE	0	Thriller	Broken Vows	No	Yes	2
23324	18	0	MOVIE	0	Action	Looper	No	Yes	2
3094	92	1	MOVIE	0	Animation	Ferdinand	No	Yes	3
4440	24	0	MOVIE	0	Thriller	Always hine	No	Yes	1
7153	8	0	MOVIE	0	Animation	The Mermaid Princess	No	Yes	1
11822	149	2	MOVIE	0	Thriller	Intruders	No	Yes	6
20571	69	1	MOVIE	0	Action	Guardians Of The Tomb	No	Yes	1
730	1347	22	SERIES/EPISODES	3	Animation	The Penguins of Madagascar	No	Yes	1
3952	7	0	MOVIE	0	Comedy	Baywatch	No	Yes	6
30012	85	1	MOVIE	0	Comedy	Killing Gunther	No	Yes	1
3279	97	1	SERIES/EPISODES	17	Action	Blindspot	No	Yes	6
28319	92	1	MOVIE	0	Animation	Trolls	No	Yes	3
25955	89	1	MOVIE	0	Animation	Coco	No	Yes	2
6520	3	0	SERIES/EPISODES	4	Drama	Britannia	No	Yes	1
32521	82	1	MOVIE	0	Thriller	Angels and Demons	No	Yes	1
9988	82	1	MOVIE	0	Action	Slow West	No	Yes	1
7235	4039	67	MOVIE	0	Comedy	Surfer  Dude	No	Yes	1
11027	13	0	MOVIE	0	Drama	Billy Lynn’s Long Halftime Walk	No	Yes	1
21713	1078	17	MOVIE	0	Animation	Dragon Ball Z: Resurrection F	No	Yes	1
19898	6	0	MOVIE	0	Action	Elephant White	No	Yes	1
9578	62	1	MOVIE	0	Thriller	Broken Vows	No	Yes	2
29787	89	1	MOVIE	0	Action	Dinosaur Island	No	Yes	1
17206	81	1	MOVIE	0	Animation	DC uper Hero Girls: Intergalactic Games	No	Yes	1
23732	81	1	MOVIE	0	Action	Jack Reacher: Never Go Back	No	Yes	2
10783	95	1	MOVIE	0	Action	The Hunter's Prayer	No	Yes	1
21263	74	1	MOVIE	0	Animation	The Mermaid Princess	No	Yes	1
13189	709	11	MOVIE	0	Comedy	Along Came Polly	No	Yes	2
21122	1253	20	SERIES/EPISODES	5	Comedy	Kalam A-Nas	No	Yes	4
995	1584	26	SERIES/EPISODES	2	Drama	Hal Manayer  	No	Yes	3
5094	89	1	MOVIE	0	Action	Pirates of the Caribbean: Dead Men Tell...	No	Yes	2
10926	64	1	MOVIE	0	Horror	Rings	No	Yes	10
19387	12	0	MOVIE	0	Animation	The Adventures of Petey and Friends	No	Yes	1
18960	1352	22	SERIES/EPISODES	8	Animation	Shimmer And hine	No	Yes	2
23875	92	1	MOVIE	0	Animation	Ferdinand	No	Yes	3
19103	88	1	MOVIE	0	Drama	Fences	No	Yes	2
20081	24	0	SERIES/EPISODES	1	Animation	Jelly Jamm  	No	Yes	1
19143	6	0	SERIES/EPISODES	1	Action	Teen Wolf	No	Yes	10
32990	59	0	MOVIE	0	Comedy	Baywatch	No	Yes	6
8703	53	0	MOVIE	0	Thriller	Our Kind Of Traitor	No	Yes	1
8417	35	0	MOVIE	0	Animation	The Jetsons & WWE: Robo-WrestleMania!	No	Yes	1
30849	9	0	SERIES/EPISODES	23	Drama	House	No	Yes	10
31379	9	0	MOVIE	0	Animation	Storks	No	Yes	1
30319	50	0	SERIES/EPISODES	4	Comedy	The Thundermans	No	Yes	1
24548	10	0	MOVIE	0	Drama	Collateral Beauty	No	Yes	4
2177	77	1	MOVIE	0	Drama	Billy Lynn’s Long Halftime Walk	No	Yes	1
31053	35	0	SERIES/EPISODES	7	Drama	Caramel  	No	Yes	3
31440	303	5	SERIES/EPISODES	7	Animation	Pingu	No	Yes	1
4808	92	1	MOVIE	0	Animation	Ferdinand	No	Yes	3
14291	60	1	MOVIE	0	Animation	The Boss Baby	No	Yes	10
8520	103	1	SERIES/EPISODES	2	Action	The Flash	No	Yes	5
29074	92	1	MOVIE	0	Animation	Ferdinand	No	Yes	3
200	78	1	MOVIE	0	Action	Instant Death	No	Yes	1
18226	7	0	SERIES/EPISODES	1	Drama	Doctor Amrad Nesa	No	Yes	1
2890	28	0	MOVIE	0	Animation	The Adventures of Petey and Friends	No	Yes	1
17227	6	0	MOVIE	0	Horror	Shutter	No	Yes	1
14760	2	0	MOVIE	0	Animation	The Jetsons & WWE: Robo-WrestleMania!	No	Yes	1
7786	16	0	MOVIE	0	NOT_DEFINED_IN_UMS	Dunkirk	No	Yes	1
22672	32	0	SERIES/EPISODES	0	Animation	Marcus Level  	No	Yes	1
25221	74	1	MOVIE	0	Animation	Moana	No	Yes	8
19919	5924	98	MOVIE	0	Animation	The murfs	No	Yes	6
26750	1076	17	SERIES/EPISODES	6	Action	Teen Wolf	No	Yes	10
20184	1057	17	SERIES/EPISODES	1	Animation	Littlest Pet hop	No	Yes	1
10253	145	2	MOVIE	0	Action	Prince of Persia: The ands of Time	No	Yes	1
2015	1245	20	SERIES/EPISODES	16	Action	Blindspot	No	Yes	6
3157	488	8	SERIES/EPISODES	9	Action	The Flash  	No	Yes	3
6440	1288	21	SERIES/EPISODES	6	Comedy	Friends	No	Yes	10
17839	1224	20	SERIES/EPISODES	4	Comedy	Men at Work  	No	Yes	1
21061	8	0	MOVIE	0	Action	Robin Hood	No	Yes	4
9559	6	0	MOVIE	0	NOT_DEFINED_IN_UMS	Dunkirk	No	Yes	1
7010	87	1	MOVIE	0	Animation	Emoji Movie	No	Yes	1
18613	74	1	SERIES/EPISODES	7	Comedy	Friends	No	Yes	10
16899	2	0	MOVIE	0	Action	The Expendables	No	Yes	8
12272	89	1	MOVIE	0	Comedy	The House	No	Yes	1
20041	6061	101	SERIES/EPISODES	2	Drama	A-Sayeda Al Oula	No	Yes	2
30807	68	1	MOVIE	0	Animation	Tad the Lost Explorer	No	Yes	1
36	91	1	MOVIE	0	Thriller	Broken Vows	No	Yes	2
32010	39	0	MOVIE	0	Comedy	Snatched	No	Yes	1
9601	23	0	MOVIE	0	Animation	Cinderella	No	Yes	1
22203	22	0	MOVIE	0	Horror	Lights Out	No	Yes	1
29524	20	0	SERIES/EPISODES	22	Comedy	Kalam A-Nas	No	Yes	4
30176	20	0	MOVIE	0	Drama	Everything Will Be Fine	No	Yes	2
30645	64	1	MOVIE	0	Animation	The Adventures of Petey and Friends	No	Yes	1
28544	99	1	MOVIE	0	Animation	Lego DC uper Hero Girls: Brain Drain	No	Yes	1
6091	91	1	MOVIE	0	Animation	The Boss Baby	No	Yes	10
32685	33	0	MOVIE	0	Thriller	Out Of Time	No	Yes	2
21530	59	0	MOVIE	0	Comedy	Baywatch	No	Yes	6
2402	51	0	SERIES/EPISODES	0	Animation	Slugterra	No	Yes	2
14005	94	1	MOVIE	0	Animation	Trolls	No	Yes	3
7540	36	0	MOVIE	0	Animation	The Adventures Of Tintin	No	Yes	1
23385	97	1	MOVIE	0	Drama	If I tay	No	Yes	3
11456	63	1	MOVIE	0	Action	Falcon Rising	No	Yes	1
30462	81	1	MOVIE	0	Action	Geostorm	No	Yes	3
13923	150	2	MOVIE	0	Action	Geostorm	No	Yes	3
13088	93	1	MOVIE	0	Drama	The hape of Water	No	Yes	3
28706	794	13	MOVIE	0	Animation	Tom And Jerry: anta's Little Helpers	No	Yes	1
871	14656	244	MOVIE	0	Drama	Heaven is for Real	No	Yes	1
15433	4	0	MOVIE	0	Animation	Trolls	No	Yes	3
25017	90	1	MOVIE	0	Animation	The Boss Baby	No	Yes	10
18920	248	4	MOVIE	0	Horror	Long Weekend	No	Yes	3
34071	2378	39	SERIES/EPISODES	9	Action	Teen Wolf	No	Yes	10
19715	93	1	MOVIE	0	Animation	Trolls	No	Yes	3
23425	36	0	MOVIE	0	Animation	Surf's Up : WaveMania	No	Yes	1
3483	12	0	MOVIE	0	Animation	The Lego Batman Movie	No	Yes	1
17656	414	6	SERIES/EPISODES	15	Comedy	Friends	No	Yes	10
13271	26	0	SERIES/EPISODES	1	Animation	Angelo Rules	No	Yes	1
29053	74	1	MOVIE	0	Animation	The Mermaid Princess	No	Yes	1
1975	75	1	MOVIE	0	Horror	The Monster	No	Yes	2
1260	3	0	MOVIE	0	Comedy	Baywatch	No	Yes	6
31909	95	1	MOVIE	0	Animation	Trolls	No	Yes	3
1403	86	1	MOVIE	0	Action	The Amazing pider-Man	No	Yes	10
3178	99	1	MOVIE	0	Drama	Gifted	No	Yes	2
13170	19	0	MOVIE	0	Animation	Trolls	No	Yes	3
29625	42	0	MOVIE	0	Animation	The Boss Baby	No	Yes	10
19450	218	3	SERIES/EPISODES	2	Animation	Dora the Explorer	No	Yes	3
14842	6	0	MOVIE	0	Animation	Justice League Adventures: Trapped In Time	No	Yes	1
20428	3507	58	MOVIE	0	Action	Nitro Circus: The Movie	No	Yes	1
3239	89	1	MOVIE	0	Comedy	Snatched	No	Yes	1
1159	71	1	MOVIE	0	Animation	Moana	No	Yes	8
5788	62	1	MOVIE	0	Animation	The Mermaid Princess	No	Yes	1
28586	88	1	MOVIE	0	Horror	Inside	No	Yes	4
26241	5075	84	MOVIE	0	Action	Elephant White	Yes	No	1
8459	1671	27	SERIES/EPISODES	2	Animation	In the Night Garden	No	Yes	10
26384	3843	64	SERIES/EPISODES	7	Horror	The Walking Dead	Yes	No	10
9866	52	0	MOVIE	0	Action	The Expendables	No	Yes	8
11559	53	0	MOVIE	0	Animation	Storks	No	Yes	1
13843	86	1	MOVIE	0	Drama	Two For The Money	No	Yes	2
27587	1546	25	SERIES/EPISODES	2	Comedy	Kalam A-Nas	No	Yes	4
19837	24	0	MOVIE	0	Action	Geostorm	No	Yes	3
29789	64	1	MOVIE	0	Animation	The Adventures of Petey and Friends	No	Yes	1
8072	94	1	MOVIE	0	Action	Rogue One: A tar Wars tory	No	Yes	1
18777	80	1	MOVIE	0	Animation	Coco	No	Yes	2
24569	94	1	MOVIE	0	Drama	Aftermath	No	Yes	2
6602	57	0	MOVIE	0	Animation	The Nut Job : Nutty by Nature	No	Yes	1
19795	1378	22	SERIES/EPISODES	5	Animation	Dora the Explorer	No	Yes	3
21877	2229	37	SERIES/EPISODES	6	Drama	A-Sayeda Al Oula	No	Yes	2
10764	1378	22	SERIES/EPISODES	1	Animation	Dora And Friends: Into The City	No	Yes	2
16977	2	0	MOVIE	0	Action	Oblivion	No	Yes	4
13639	2	0	MOVIE	0	Animation	The Boss Baby	No	Yes	10
25711	88	1	MOVIE	0	Drama	Dolphin Tale	Yes	No	1
2972	15	0	MOVIE	0	Documentary	An Inconvenient equel: Truth to Power	No	Yes	2
11008	88	1	MOVIE	0	Comedy	Snatched	No	Yes	1
25976	64	1	MOVIE	0	Comedy	Charlie And The Chocolate Factory	No	Yes	1
22956	21	0	SERIES/EPISODES	32	Animation	Oscar's Oasis	No	Yes	1
18165	14	0	MOVIE	0	Horror	Alien: Covenant	No	Yes	7
23427	82	1	MOVIE	0	Animation	Tad the Lost Explorer	No	Yes	1
10335	98	1	MOVIE	0	Documentary	An Inconvenient equel: Truth to Power	No	Yes	2
15740	4632	77	SERIES/EPISODES	7	Horror	The train	No	Yes	1
8173	60	1	MOVIE	0	Action	Free Fire	No	Yes	1
5828	12	0	MOVIE	0	Animation	The Adventures of Petey and Friends	No	Yes	1
3933	105	1	MOVIE	0	Horror	Rings	No	Yes	10
16779	91	1	MOVIE	0	Animation	The Boss Baby	No	Yes	10
8358	48	0	MOVIE	0	Documentary	An Inconvenient equel: Truth to Power	No	Yes	2
15290	80	1	MOVIE	0	Animation	The Boss Baby	No	Yes	10
2322	5302	88	MOVIE	0	Action	Jurassic Park III	No	Yes	1
13292	20	0	MOVIE	0	Comedy	Tambola	No	Yes	1
18615	73	1	MOVIE	0	Biography	Rebel in the Rye	No	Yes	1
19084	7792	129	MOVIE	0	Action	Parker	No	Yes	3
10865	1438	23	SERIES/EPISODES	10	Animation	Dinofroz  	No	Yes	2
20388	66	1	SERIES/EPISODES	3	Drama	Power	Yes	No	1
179	15	0	MOVIE	0	Action	Harry Potter - Part	No	Yes	1
16005	92	1	MOVIE	0	Animation	The Boss Baby	No	Yes	10
32033	136	2	MOVIE	0	Animation	The pongeBob quarePants Movie	No	Yes	1
12783	4194	69	MOVIE	0	Comedy	Trading Places	No	Yes	1
13313	9514	158	SERIES/EPISODES	8	Drama	Homeland	Yes	No	3
33848	22	0	SERIES/EPISODES	1	Horror	The Walking Dead	Yes	No	10
24121	91	1	MOVIE	0	Animation	The Boss Baby	No	Yes	10
10438	41	0	SERIES/EPISODES	0	Animation	The Penguins of Madagascar	No	Yes	1
32439	60	1	MOVIE	0	Documentary	An Inconvenient equel: Truth to Power	No	Yes	2
31890	5260	87	MOVIE	0	Drama	Seven Pounds	No	Yes	1
12964	88	1	MOVIE	0	Drama	Collateral Beauty	No	Yes	4
28077	14	0	MOVIE	0	Animation	Batman and Harley Quinn	No	Yes	1
23652	6	0	MOVIE	0	NOT_DEFINED_IN_UMS	Dunkirk	No	Yes	1
10234	4047	67	SERIES/EPISODES	14	Drama	Unforgettable	No	Yes	3
25589	1303	21	SERIES/EPISODES	24	Animation	Littlest Pet hop  	No	Yes	1
22428	8	0	MOVIE	0	Animation	The Boss Baby	No	Yes	10
22571	1325	22	SERIES/EPISODES	5	Animation	Littlest Pet hop  	No	Yes	1
11862	173	2	SERIES/EPISODES	9	Drama	Devious Maids	No	Yes	2
31135	294	4	SERIES/EPISODES	3	Action	Vikings	No	Yes	7
24590	86	1	MOVIE	0	Animation	Lego DC Comics uper Heroes: The Flash	No	Yes	1
17799	1630	27	SERIES/EPISODES	9	Comedy	Kalam A-Nas	No	Yes	4
8133	95	1	MOVIE	0	Action	Logan	No	Yes	1
22510	53	0	MOVIE	0	Drama	Collateral Beauty	No	Yes	4
12396	2593	43	MOVIE	0	Animation	Madagascar: Escape  Africa	No	Yes	1
15719	9	0	MOVIE	0	Drama	The hape of Water	No	Yes	3